
mars_final.elf:     file format elf32-littlenios2
mars_final.elf
architecture: nios2:r1, flags 0x00000112:
EXEC_P, HAS_SYMS, D_PAGED
start address 0x00020248

Program Header:
    LOAD off    0x00001000 vaddr 0x00020000 paddr 0x00020000 align 2**12
         filesz 0x00000020 memsz 0x00000020 flags r-x
    LOAD off    0x00001020 vaddr 0x00020020 paddr 0x00020020 align 2**12
         filesz 0x000177c4 memsz 0x000177c4 flags r-x
    LOAD off    0x000187e4 vaddr 0x000377e4 paddr 0x00039b74 align 2**12
         filesz 0x00002390 memsz 0x00002390 flags rw-
    LOAD off    0x0001af04 vaddr 0x0003bf04 paddr 0x0003bf04 align 2**12
         filesz 0x00000000 memsz 0x00000160 flags rw-

Sections:
Idx Name          Size      VMA       LMA       File off  Algn
  0 .entry        00000020  00020000  00020000  00001000  2**5
                  CONTENTS, ALLOC, LOAD, READONLY, CODE
  1 .exceptions   00000228  00020020  00020020  00001020  2**2
                  CONTENTS, ALLOC, LOAD, READONLY, CODE
  2 .text         000165c0  00020248  00020248  00001248  2**2
                  CONTENTS, ALLOC, LOAD, READONLY, CODE
  3 .rodata       00000fdc  00036808  00036808  00017808  2**2
                  CONTENTS, ALLOC, LOAD, READONLY, DATA
  4 .rwdata       00002390  000377e4  00039b74  000187e4  2**2
                  CONTENTS, ALLOC, LOAD, DATA, SMALL_DATA
  5 .bss          00000160  0003bf04  0003bf04  0001af04  2**2
                  ALLOC, SMALL_DATA
  6 .onchip_memory2_0 00000000  0003c064  0003c064  0001ab74  2**0
                  CONTENTS
  7 .comment      00000023  00000000  00000000  0001ab74  2**0
                  CONTENTS, READONLY
  8 .debug_aranges 000012b0  00000000  00000000  0001ab98  2**3
                  CONTENTS, READONLY, DEBUGGING
  9 .debug_info   0002fe5e  00000000  00000000  0001be48  2**0
                  CONTENTS, READONLY, DEBUGGING
 10 .debug_abbrev 0000c0e6  00000000  00000000  0004bca6  2**0
                  CONTENTS, READONLY, DEBUGGING
 11 .debug_line   0000f0e5  00000000  00000000  00057d8c  2**0
                  CONTENTS, READONLY, DEBUGGING
 12 .debug_frame  00002f18  00000000  00000000  00066e74  2**2
                  CONTENTS, READONLY, DEBUGGING
 13 .debug_str    000047eb  00000000  00000000  00069d8c  2**0
                  CONTENTS, READONLY, DEBUGGING
 14 .debug_loc    00019dbd  00000000  00000000  0006e577  2**0
                  CONTENTS, READONLY, DEBUGGING
 15 .debug_alt_sim_info 00000060  00000000  00000000  00088334  2**2
                  CONTENTS, READONLY, DEBUGGING
 16 .debug_ranges 00001c70  00000000  00000000  00088398  2**3
                  CONTENTS, READONLY, DEBUGGING
 17 .thread_model 00000003  00000000  00000000  0008df46  2**0
                  CONTENTS, READONLY
 18 .cpu          0000000a  00000000  00000000  0008df49  2**0
                  CONTENTS, READONLY
 19 .qsys         00000001  00000000  00000000  0008df53  2**0
                  CONTENTS, READONLY
 20 .simulation_enabled 00000001  00000000  00000000  0008df54  2**0
                  CONTENTS, READONLY
 21 .sysid_hash   00000004  00000000  00000000  0008df55  2**0
                  CONTENTS, READONLY
 22 .sysid_base   00000004  00000000  00000000  0008df59  2**0
                  CONTENTS, READONLY
 23 .sysid_time   00000004  00000000  00000000  0008df5d  2**0
                  CONTENTS, READONLY
 24 .stderr_dev   00000009  00000000  00000000  0008df61  2**0
                  CONTENTS, READONLY
 25 .stdin_dev    00000009  00000000  00000000  0008df6a  2**0
                  CONTENTS, READONLY
 26 .stdout_dev   00000009  00000000  00000000  0008df73  2**0
                  CONTENTS, READONLY
 27 .sopc_system_name 00000004  00000000  00000000  0008df7c  2**0
                  CONTENTS, READONLY
 28 .quartus_project_dir 00000040  00000000  00000000  0008df80  2**0
                  CONTENTS, READONLY
 29 .jdi          0000414a  00000000  00000000  0008dfc0  2**0
                  CONTENTS, READONLY
 30 .sopcinfo     000a63b0  00000000  00000000  0009210a  2**0
                  CONTENTS, READONLY
SYMBOL TABLE:
00020000 l    d  .entry	00000000 .entry
00020020 l    d  .exceptions	00000000 .exceptions
00020248 l    d  .text	00000000 .text
00036808 l    d  .rodata	00000000 .rodata
000377e4 l    d  .rwdata	00000000 .rwdata
0003bf04 l    d  .bss	00000000 .bss
0003c064 l    d  .onchip_memory2_0	00000000 .onchip_memory2_0
00000000 l    d  .comment	00000000 .comment
00000000 l    d  .debug_aranges	00000000 .debug_aranges
00000000 l    d  .debug_info	00000000 .debug_info
00000000 l    d  .debug_abbrev	00000000 .debug_abbrev
00000000 l    d  .debug_line	00000000 .debug_line
00000000 l    d  .debug_frame	00000000 .debug_frame
00000000 l    d  .debug_str	00000000 .debug_str
00000000 l    d  .debug_loc	00000000 .debug_loc
00000000 l    d  .debug_alt_sim_info	00000000 .debug_alt_sim_info
00000000 l    d  .debug_ranges	00000000 .debug_ranges
00000000 l    df *ABS*	00000000 ../mars_final_bsp//obj/HAL/src/crt0.o
00020290 l       .text	00000000 alt_after_alt_main
00000000 l    df *ABS*	00000000 alt_irq_handler.c
00000000 l    df *ABS*	00000000 alt_instruction_exception_entry.c
00000000 l    df *ABS*	00000000 I2C_core.c
00000000 l    df *ABS*	00000000 auto_focus.c
00000000 l    df *ABS*	00000000 main.c
00000000 l    df *ABS*	00000000 mipi_bridge_config.c
000377e4 l     O .rwdata	00000034 MipiBridgeReg
00000000 l    df *ABS*	00000000 mipi_camera_config.c
00037818 l     O .rwdata	00000774 MipiCameraReg
00000000 l    df *ABS*	00000000 queue.c
00000000 l    df *ABS*	00000000 lib2-divmod.c
00000000 l    df *ABS*	00000000 divsf3.c
00000000 l    df *ABS*	00000000 gesf2.c
00000000 l    df *ABS*	00000000 mulsf3.c
00000000 l    df *ABS*	00000000 fixsfsi.c
00000000 l    df *ABS*	00000000 floatsisf.c
00000000 l    df *ABS*	00000000 gedf2.c
00000000 l    df *ABS*	00000000 ledf2.c
00000000 l    df *ABS*	00000000 muldf3.c
00000000 l    df *ABS*	00000000 floatsidf.c
00000000 l    df *ABS*	00000000 libgcc2.c
00000000 l    df *ABS*	00000000 libgcc2.c
00000000 l    df *ABS*	00000000 fflush.c
00000000 l    df *ABS*	00000000 findfp.c
00026e00 l     F .text	00000008 __fp_unlock
00026e14 l     F .text	0000019c __sinit.part.1
00026fb0 l     F .text	00000008 __fp_lock
00000000 l    df *ABS*	00000000 fopen.c
00000000 l    df *ABS*	00000000 fprintf.c
00000000 l    df *ABS*	00000000 mallocr.c
00000000 l    df *ABS*	00000000 fseek.c
00000000 l    df *ABS*	00000000 fseeko.c
00000000 l    df *ABS*	00000000 fstatr.c
00000000 l    df *ABS*	00000000 fwalk.c
00000000 l    df *ABS*	00000000 fwrite.c
00000000 l    df *ABS*	00000000 getc.c
00000000 l    df *ABS*	00000000 impure.c
00037f8c l     O .rwdata	00000424 impure_data
00000000 l    df *ABS*	00000000 int_errno.c
00000000 l    df *ABS*	00000000 makebuf.c
00000000 l    df *ABS*	00000000 malloc.c
00000000 l    df *ABS*	00000000 mallocr.c
00000000 l    df *ABS*	00000000 memset.c
00000000 l    df *ABS*	00000000 openr.c
00000000 l    df *ABS*	00000000 printf.c
00000000 l    df *ABS*	00000000 putchar.c
00000000 l    df *ABS*	00000000 puts.c
00000000 l    df *ABS*	00000000 refill.c
00028c60 l     F .text	0000001c lflush
00000000 l    df *ABS*	00000000 rget.c
00000000 l    df *ABS*	00000000 sbrkr.c
00000000 l    df *ABS*	00000000 stdio.c
00000000 l    df *ABS*	00000000 strlen.c
00000000 l    df *ABS*	00000000 vfprintf.c
00037616 l     O .rodata	00000010 zeroes.4404
0002b314 l     F .text	000000bc __sbprintf
00037626 l     O .rodata	00000010 blanks.4403
00000000 l    df *ABS*	00000000 writer.c
00000000 l    df *ABS*	00000000 wsetup.c
00000000 l    df *ABS*	00000000 closer.c
00000000 l    df *ABS*	00000000 dtoa.c
0002b5d8 l     F .text	00000200 quorem
00000000 l    df *ABS*	00000000 fclose.c
00000000 l    df *ABS*	00000000 flags.c
00000000 l    df *ABS*	00000000 fvwrite.c
00000000 l    df *ABS*	00000000 isattyr.c
00000000 l    df *ABS*	00000000 locale.c
000387d8 l     O .rwdata	00000020 lc_ctype_charset
000387b8 l     O .rwdata	00000020 lc_message_charset
000387f8 l     O .rwdata	00000038 lconv
00000000 l    df *ABS*	00000000 lseekr.c
00000000 l    df *ABS*	00000000 memchr.c
00000000 l    df *ABS*	00000000 memcpy.c
00000000 l    df *ABS*	00000000 memmove.c
00000000 l    df *ABS*	00000000 mprec.c
00037654 l     O .rodata	0000000c p05.2768
00000000 l    df *ABS*	00000000 putc.c
00000000 l    df *ABS*	00000000 readr.c
00000000 l    df *ABS*	00000000 mallocr.c
00000000 l    df *ABS*	00000000 s_fpclassify.c
00000000 l    df *ABS*	00000000 strcmp.c
00000000 l    df *ABS*	00000000 vfprintf.c
0002f25c l     F .text	000000fc __sprint_r.part.0
00037788 l     O .rodata	00000010 blanks.4348
00037778 l     O .rodata	00000010 zeroes.4349
000307e8 l     F .text	000000bc __sbprintf
00000000 l    df *ABS*	00000000 wbuf.c
00000000 l    df *ABS*	00000000 mallocr.c
00000000 l    df *ABS*	00000000 fputwc.c
00000000 l    df *ABS*	00000000 wcrtomb.c
00000000 l    df *ABS*	00000000 wctomb_r.c
00000000 l    df *ABS*	00000000 libgcc2.c
00000000 l    df *ABS*	00000000 libgcc2.c
00000000 l    df *ABS*	00000000 adddf3.c
00000000 l    df *ABS*	00000000 divdf3.c
00000000 l    df *ABS*	00000000 eqdf2.c
00000000 l    df *ABS*	00000000 subdf3.c
00000000 l    df *ABS*	00000000 fixdfsi.c
00000000 l    df *ABS*	00000000 floatunsidf.c
00000000 l    df *ABS*	00000000 alt_close.c
000335a0 l     F .text	0000003c alt_get_errno
00000000 l    df *ABS*	00000000 alt_dev.c
000336ac l     F .text	0000002c alt_dev_null_write
00000000 l    df *ABS*	00000000 alt_errno.c
00000000 l    df *ABS*	00000000 alt_fcntl.c
000336d8 l     F .text	0000003c alt_get_errno
00000000 l    df *ABS*	00000000 alt_fstat.c
00033834 l     F .text	0000003c alt_get_errno
00000000 l    df *ABS*	00000000 alt_isatty.c
00033920 l     F .text	0000003c alt_get_errno
00000000 l    df *ABS*	00000000 alt_load.c
00033a00 l     F .text	00000068 alt_load_section
00000000 l    df *ABS*	00000000 alt_lseek.c
00033aec l     F .text	0000003c alt_get_errno
00000000 l    df *ABS*	00000000 alt_main.c
00000000 l    df *ABS*	00000000 alt_malloc_lock.c
00000000 l    df *ABS*	00000000 alt_open.c
00033cc0 l     F .text	0000003c alt_get_errno
00033cfc l     F .text	000000c4 alt_file_locked
00000000 l    df *ABS*	00000000 alt_read.c
00033f14 l     F .text	0000003c alt_get_errno
00000000 l    df *ABS*	00000000 alt_release_fd.c
00000000 l    df *ABS*	00000000 alt_sbrk.c
00039b64 l     O .rwdata	00000004 heap_end
00000000 l    df *ABS*	00000000 alt_tick.c
00000000 l    df *ABS*	00000000 alt_usleep.c
00000000 l    df *ABS*	00000000 alt_write.c
00034334 l     F .text	0000003c alt_get_errno
00000000 l    df *ABS*	00000000 alt_sys_init.c
00034468 l     F .text	00000034 alt_dev_reg
000389d8 l     O .rwdata	00001060 jtag_uart
00039a38 l     O .rwdata	000000c4 uart
00039afc l     O .rwdata	0000002c accelerometer
00000000 l    df *ABS*	00000000 altera_avalon_jtag_uart_fd.c
00000000 l    df *ABS*	00000000 altera_avalon_jtag_uart_init.c
0003477c l     F .text	00000210 altera_avalon_jtag_uart_irq
0003498c l     F .text	000000a0 altera_avalon_jtag_uart_timeout
00000000 l    df *ABS*	00000000 altera_avalon_jtag_uart_ioctl.c
00000000 l    df *ABS*	00000000 altera_avalon_jtag_uart_read.c
00000000 l    df *ABS*	00000000 altera_avalon_jtag_uart_write.c
00000000 l    df *ABS*	00000000 altera_avalon_timer_sc.c
00034fc4 l     F .text	0000007c alt_avalon_timer_sc_irq
00000000 l    df *ABS*	00000000 altera_avalon_uart_fd.c
00000000 l    df *ABS*	00000000 altera_avalon_uart_init.c
00035268 l     F .text	000000a0 altera_avalon_uart_irq
00035308 l     F .text	000000e4 altera_avalon_uart_rxirq
000353ec l     F .text	00000148 altera_avalon_uart_txirq
00000000 l    df *ABS*	00000000 altera_avalon_uart_read.c
00035588 l     F .text	0000003c alt_get_errno
00000000 l    df *ABS*	00000000 altera_avalon_uart_write.c
000357a0 l     F .text	0000003c alt_get_errno
00000000 l    df *ABS*	00000000 alt_alarm_start.c
00000000 l    df *ABS*	00000000 alt_busy_sleep.c
00000000 l    df *ABS*	00000000 alt_dcache_flush_all.c
00000000 l    df *ABS*	00000000 alt_dev_llist_insert.c
00035c54 l     F .text	0000003c alt_get_errno
00000000 l    df *ABS*	00000000 alt_do_ctors.c
00000000 l    df *ABS*	00000000 alt_do_dtors.c
00000000 l    df *ABS*	00000000 alt_find_dev.c
00000000 l    df *ABS*	00000000 alt_find_file.c
00000000 l    df *ABS*	00000000 alt_get_fd.c
00000000 l    df *ABS*	00000000 alt_icache_flush_all.c
00000000 l    df *ABS*	00000000 alt_io_redirect.c
00036064 l     F .text	000000c4 alt_open_fd
00000000 l    df *ABS*	00000000 alt_irq_register.c
00000000 l    df *ABS*	00000000 alt_irq_vars.c
00000000 l    df *ABS*	00000000 altera_nios2_gen2_irq.c
00000000 l    df *ABS*	00000000 alt_icache_flush.c
00000000 l    df *ABS*	00000000 atexit.c
00000000 l    df *ABS*	00000000 exit.c
00000000 l    df *ABS*	00000000 memcmp.c
00000000 l    df *ABS*	00000000 __atexit.c
00000000 l    df *ABS*	00000000 __call_atexit.c
00000000 l    df *ABS*	00000000 alt_exit.c
0003bf38 g     O .bss	00000004 alt_instruction_exception_handler
00028b74 g     F .text	00000018 putchar
0002e868 g     F .text	00000074 _mprec_log10
0002e954 g     F .text	0000008c __any_on
0002d4cc g     F .text	00000054 _isatty_r
00037660 g     O .rodata	00000028 __mprec_tinytens
00033bfc g     F .text	0000007c alt_main
00028b8c g     F .text	000000c0 _puts_r
0003bf64 g     O .bss	00000100 alt_irq
0002d5fc g     F .text	00000060 _lseek_r
00021348 g     F .text	00000090 Focus_Released
000205e8 g     F .text	00000060 ACK_check
00039b74 g       *ABS*	00000000 __flash_rwdata_start
0002055c g     F .text	0000008c ACK_single_check
0002cf64 g     F .text	000000ac __sflags
00032af4 g     F .text	00000088 .hidden __eqdf2
00021168 g     F .text	000001e0 Focus_Window
00024a64 g     F .text	0000006c OV8865_write_AF
0003c064 g       *ABS*	00000000 __alt_heap_start
00025334 g     F .text	00000064 QUEUE_IsFull
00028b30 g     F .text	0000003c printf
00030cc8 g     F .text	0000009c _wcrtomb_r
00029004 g     F .text	0000005c __sseek
00027150 g     F .text	00000010 __sinit
000308a4 g     F .text	00000140 __swbuf_r
0002d520 g     F .text	0000007c _setlocale_r
00026fb8 g     F .text	00000068 __sfmoreglue
00033c9c g     F .text	00000024 __malloc_unlock
000256a4 g     F .text	00000440 .hidden __divsf3
0002d888 g     F .text	0000015c memmove
00020648 g     F .text	00000200 OC_I2C_Write
00027138 g     F .text	00000018 _cleanup
0002d9e4 g     F .text	000000a8 _Balloc
00025f9c g     F .text	00000070 .hidden __fixsfsi
00021040 g     F .text	00000128 Focus_Init
00026130 g     F .text	000000dc .hidden __gtdf2
00036324 g     F .text	00000024 altera_nios2_gen2_irq_init
00020000 g     F .entry	0000001c __reset
00020020 g       *ABS*	00000000 __flash_exceptions_start
00027bac g     F .text	0000005c _fstat_r
00039b30 g     O .rwdata	00000001 focus_scal
0003bf04 g     O .bss	00000004 errno
00028ec4 g     F .text	00000014 __srget
00028f80 g     F .text	00000008 __seofread
0003bf24 g     O .bss	00000004 alt_argv
00041b28 g       *ABS*	00000000 _gp
00034304 g     F .text	00000030 usleep
00038858 g     O .rwdata	00000180 alt_fd_list
00027e90 g     F .text	00000070 _getc_r
00027f00 g     F .text	00000088 getc
00028b6c g     F .text	00000008 _putchar_r
00035df4 g     F .text	00000090 alt_find_dev
0002d740 g     F .text	00000148 memcpy
0002039c g     F .text	0000013c oc_i2c_init_ex
00026e08 g     F .text	0000000c _cleanup_r
00026a18 g     F .text	000000dc .hidden __floatsidf
00036128 g     F .text	0000007c alt_io_redirect
0002620c g     F .text	000000f4 .hidden __ltdf2
00036808 g       *ABS*	00000000 __DTOR_END__
00028c4c g     F .text	00000014 puts
000363d8 g     F .text	0000009c alt_exception_cause_generated_bad_addr
0002f10c g     F .text	00000074 __fpclassifyd
0002e7c4 g     F .text	000000a4 __ratio
000307cc g     F .text	0000001c __vfiprintf_internal
000252f4 g     F .text	00000040 QUEUE_IsEmpty
00034b84 g     F .text	0000021c altera_avalon_jtag_uart_read
00028144 g     F .text	00000014 malloc
00028b00 g     F .text	00000030 _printf_r
00020000 g       *ABS*	00000000 __alt_mem_onchip_memory2_0
000255e8 g     F .text	00000064 .hidden __udivsi3
0003395c g     F .text	000000a4 isatty
000376b0 g     O .rodata	000000c8 __mprec_tens
0002d59c g     F .text	0000000c __locale_charset
00036348 g     F .text	00000090 alt_icache_flush
0003bf10 g     O .bss	00000004 __malloc_top_pad
000254bc g     F .text	00000034 QUEUE_Empty
00024b50 g     F .text	000000d0 OV8865_FOCUS_Move_to
00039b44 g     O .rwdata	00000004 __mb_cur_max
0002d5cc g     F .text	0000000c _localeconv_r
0002ddf0 g     F .text	0000003c __i2b
0002d010 g     F .text	000004bc __sfvwrite_r
0002542c g     F .text	00000090 QUEUE_Pop
00028ed8 g     F .text	00000054 _sbrk_r
0002eb48 g     F .text	00000060 _read_r
00039b2e g     O .rwdata	00000002 focus_height
00039b5c g     O .rwdata	00000004 alt_max_fd
0002ce60 g     F .text	000000f0 _fclose_r
000249f8 g     F .text	0000006c OV8865_write_cmos_sensor_8
00026dd0 g     F .text	00000030 fflush
0003bf0c g     O .bss	00000004 __malloc_max_sbrked_mem
000361a4 g     F .text	00000180 alt_irq_register
00031960 g     F .text	000008ac .hidden __adddf3
0002e56c g     F .text	0000010c __b2d
00031428 g     F .text	00000538 .hidden __umoddi3
00033b28 g     F .text	000000d4 lseek
00039b34 g     O .rwdata	00000004 _global_impure_ptr
0002eba8 g     F .text	00000564 _realloc_r
0003c064 g       *ABS*	00000000 __bss_end
000341fc g     F .text	00000108 alt_tick
00030eb0 g     F .text	00000578 .hidden __udivdi3
00030c24 g     F .text	00000024 _fputwc_r
00037688 g     O .rodata	00000028 __mprec_bigtens
0002dbd4 g     F .text	00000104 __s2b
000334f8 g     F .text	000000a8 .hidden __floatunsidf
00039b2a g     O .rwdata	00000002 video_h
0002e2ac g     F .text	00000060 __mcmp
000351c4 g     F .text	000000a4 altera_avalon_uart_init
00027170 g     F .text	00000018 __fp_lock_all
000213d8 g     F .text	000000b8 mipi_clear_error
00020bb0 g     F .text	00000210 OC_I2CL_Write
00034160 g     F .text	0000009c alt_alarm_stop
0003bf34 g     O .bss	00000004 alt_irq_active
0002774c g     F .text	00000444 _fseeko_r
00020848 g     F .text	00000064 ACK_judge_for_read
000200fc g     F .exceptions	000000d8 alt_irq_handler
00024d00 g     F .text	000000cc OV8865SetGain
00038830 g     O .rwdata	00000028 alt_dev_null
00020294 g     F .text	00000058 Write32_Data
00035c0c g     F .text	00000048 alt_dcache_flush_all
0002dcd8 g     F .text	00000068 __hi0bits
00033478 g     F .text	00000080 .hidden __fixdfsi
00039b31 g     O .rwdata	00000001 focus_scal_f
00039b74 g       *ABS*	00000000 __ram_rwdata_end
00039b54 g     O .rwdata	00000008 alt_dev_list
00034370 g     F .text	000000f8 write
0002e9e0 g     F .text	000000a0 _putc_r
00025ae4 g     F .text	000000bc .hidden __gtsf2
000377e4 g       *ABS*	00000000 __ram_rodata_end
00033870 g     F .text	000000b0 fstat
000272d4 g     F .text	00000024 fprintf
0002620c g     F .text	000000f4 .hidden __ledf2
0002e024 g     F .text	00000140 __pow5mult
0002f370 g     F .text	0000145c ___vfiprintf_internal_r
0003bf1c g     O .bss	00000004 __nlocale_changed
0002564c g     F .text	00000058 .hidden __umodsi3
00021528 g     F .text	00000178 mipi_show_error_info_more
0003c064 g       *ABS*	00000000 end
00027b90 g     F .text	0000001c fseeko
000357dc g     F .text	000001ac altera_avalon_uart_write
00027730 g     F .text	0000001c fseek
000346c8 g     F .text	000000b4 altera_avalon_jtag_uart_init
000201d4 g     F .exceptions	00000074 alt_instruction_exception_entry
00036808 g       *ABS*	00000000 __CTOR_LIST__
00040000 g       *ABS*	00000000 __alt_stack_pointer
00035040 g     F .text	00000074 alt_avalon_timer_sc_init
00035114 g     F .text	00000060 altera_avalon_uart_write_fd
00026af4 g     F .text	00000064 .hidden __clzsi2
00035174 g     F .text	00000050 altera_avalon_uart_close_fd
00034da0 g     F .text	00000224 altera_avalon_jtag_uart_write
00027160 g     F .text	00000004 __sfp_lock_acquire
0002d65c g     F .text	000000e4 memchr
00029100 g     F .text	000021f8 ___vfprintf_internal_r
0002741c g     F .text	00000310 _free_r
0002d5a8 g     F .text	00000010 __locale_mb_cur_max
00036654 g     F .text	00000180 __call_exitprocs
00028e50 g     F .text	00000074 __srget_r
00021890 g     F .text	00000064 is_in_centre_range
0003bf18 g     O .bss	00000004 __mlocale_changed
00039b3c g     O .rwdata	00000004 __malloc_sbrk_base
00020248 g     F .text	0000004c _start
0003bf2c g     O .bss	00000004 _alt_tick_rate
0002e164 g     F .text	00000148 __lshift
00025398 g     F .text	00000094 QUEUE_Push
0003bf30 g     O .bss	00000004 _alt_nticks
00033f50 g     F .text	000000fc read
000344d4 g     F .text	00000090 alt_sys_init
0002600c g     F .text	00000124 .hidden __floatsisf
00028aa0 g     F .text	00000060 _open_r
0003653c g     F .text	00000118 __register_exitproc
00024994 g     F .text	00000064 OV8865_read_cmos_sensor_8
0002de2c g     F .text	000001f8 __multiply
00034a2c g     F .text	00000068 altera_avalon_jtag_uart_close
00024780 g     F .text	0000006c MipiBridgeRegWrite
000377e4 g       *ABS*	00000000 __ram_rwdata_start
00036808 g       *ABS*	00000000 __ram_rodata_start
0003bf3c g     O .bss	00000028 __malloc_current_mallinfo
0002e678 g     F .text	0000014c __d2b
00034564 g     F .text	00000060 altera_avalon_jtag_uart_read_fd
00035f8c g     F .text	000000a4 alt_get_fd
00035ab4 g     F .text	00000158 alt_busy_sleep
0002b584 g     F .text	00000054 _close_r
000364c0 g     F .text	0000007c memcmp
00034624 g     F .text	00000050 altera_avalon_jtag_uart_close_fd
0003c064 g       *ABS*	00000000 __alt_stack_base
00034674 g     F .text	00000054 altera_avalon_jtag_uart_ioctl_fd
00027d90 g     F .text	000000cc _fwrite_r
0002b430 g     F .text	00000154 __swsetup_r
00020344 g     F .text	00000058 oc_i2c_init
0003220c g     F .text	000008e8 .hidden __divdf3
00027020 g     F .text	00000118 __sfp
0002e8dc g     F .text	00000078 __copybits
000383b0 g     O .rwdata	00000408 __malloc_av_
0002716c g     F .text	00000004 __sinit_lock_release
00026300 g     F .text	00000718 .hidden __muldf3
00028f2c g     F .text	00000054 __sread
00035e84 g     F .text	00000108 alt_find_file
00035c90 g     F .text	000000a4 alt_dev_llist_insert
00033c78 g     F .text	00000024 __malloc_lock
000272ac g     F .text	00000028 _fprintf_r
000340b0 g     F .text	000000b0 sbrk
00025048 g     F .text	00000208 MipiCameraInit
00024734 g     F .text	0000004c nSWAP16
00026d74 g     F .text	0000005c _fflush_r
000309fc g     F .text	000000c4 _calloc_r
00025250 g     F .text	00000070 QUEUE_New
00027294 g     F .text	00000018 fopen
0003bf04 g       *ABS*	00000000 __bss_start
00028978 g     F .text	00000128 memset
00023048 g     F .text	000016ec main
0003bf28 g     O .bss	00000004 alt_envp
0003bf08 g     O .bss	00000004 __malloc_max_total_mem
000345c4 g     F .text	00000060 altera_avalon_jtag_uart_write_fd
000309e4 g     F .text	00000018 __swbuf
00029060 g     F .text	00000008 __sclose
00040000 g       *ABS*	00000000 __alt_heap_limit
0002cf50 g     F .text	00000014 fclose
0002b7d8 g     F .text	00001688 _dtoa_r
0002816c g     F .text	0000080c _malloc_r
00030e24 g     F .text	00000030 __ascii_wctomb
00039b60 g     O .rwdata	00000004 alt_errno
00027c08 g     F .text	000000c4 _fwalk
0002ea80 g     F .text	000000c8 putc
000254f0 g     F .text	00000084 .hidden __divsi3
000204d8 g     F .text	00000084 oc_i2c_uninit
000272f8 g     F .text	00000124 _malloc_trim_r
00036808 g       *ABS*	00000000 __CTOR_END__
00025ba0 g     F .text	000003fc .hidden __mulsf3
00024e88 g     F .text	000001c0 MIPI_BIN_LEVEL
0002f180 g     F .text	000000dc strcmp
00036808 g       *ABS*	00000000 __flash_rodata_start
00036808 g       *ABS*	00000000 __DTOR_LIST__
00032af4 g     F .text	00000088 .hidden __nedf2
0003449c g     F .text	00000038 alt_irq_init
0003404c g     F .text	00000064 alt_release_fd
00024864 g     F .text	00000130 MipiBridgeInit
000374cc g     O .rodata	00000100 .hidden __clz_tab
0003bf14 g     O .bss	00000004 _PathLocale
00036474 g     F .text	00000014 atexit
00025ae4 g     F .text	000000bc .hidden __gesf2
0002b3d0 g     F .text	00000060 _write_r
00021a58 g     F .text	000015f0 go_towards
0002d5d8 g     F .text	00000018 setlocale
00039b38 g     O .rwdata	00000004 _impure_ptr
0003bf20 g     O .bss	00000004 alt_argc
000247ec g     F .text	00000078 MipiBridgeRegRead
00026b58 g     F .text	0000021c __sflush_r
00035d94 g     F .text	00000060 _do_dtors
0002d5c4 g     F .text	00000008 __locale_cjk_lang
0002772c g     F .text	00000004 _fseek_r
00039b28 g     O .rwdata	00000002 video_w
00028c7c g     F .text	000001d4 __srefill_r
00020020 g       .exceptions	00000000 alt_irq_entry
0002e508 g     F .text	00000064 __ulp
00027188 g     F .text	00000018 __fp_unlock_all
00039b4c g     O .rwdata	00000008 alt_fs_list
000202ec g     F .text	00000058 Read32_Data
000208ac g     F .text	000001cc OC_I2C_Read
00020020 g       *ABS*	00000000 __ram_exceptions_start
0002d5f0 g     F .text	0000000c localeconv
00021938 g     F .text	00000044 distance_check_z2
00027e5c g     F .text	00000034 fwrite
00039b74 g       *ABS*	00000000 _edata
000350b4 g     F .text	00000060 altera_avalon_uart_read_fd
0003c064 g       *ABS*	00000000 _end
00024dcc g     F .text	000000bc OV8865ReadExposure
00030ac0 g     F .text	00000164 __fputwc
00020248 g       *ABS*	00000000 __ram_exceptions_end
00034a94 g     F .text	000000f0 altera_avalon_jtag_uart_ioctl
00028f88 g     F .text	0000007c __swrite
00039b40 g     O .rwdata	00000004 __malloc_trim_threshold
00020a78 g     F .text	00000138 OC_I2C_Read_Continue
0002d5b8 g     F .text	0000000c __locale_msgcharset
00036488 g     F .text	00000038 exit
00039b32 g     O .rwdata	00000001 focus_th
00027ccc g     F .text	000000c4 _fwalk_reent
0002e30c g     F .text	000001fc __mdiff
00025574 g     F .text	00000074 .hidden __modsi3
00040000 g       *ABS*	00000000 __alt_data_end
00020020 g     F .exceptions	00000000 alt_exception
00027164 g     F .text	00000004 __sfp_lock_release
00021490 g     F .text	00000098 mipi_show_error_info
000252c0 g     F .text	00000034 QUEUE_Delete
00035534 g     F .text	00000054 altera_avalon_uart_close
00020dc0 g     F .text	00000280 OC_I2CL_Read
000271a0 g     F .text	000000f4 _fopen_r
000367d4 g     F .text	00000034 _exit
00035988 g     F .text	0000012c alt_alarm_start
00027f88 g     F .text	000001bc __smakebuf_r
00029068 g     F .text	00000098 strlen
00033dc0 g     F .text	00000154 open
00026130 g     F .text	000000dc .hidden __gedf2
00039b48 g     O .rwdata	00000004 __wctomb
0002f358 g     F .text	00000018 __sprint_r
00036030 g     F .text	00000034 alt_icache_flush_all
00024c20 g     F .text	000000e0 OV8865SetExposure
00039b70 g     O .rwdata	00000004 alt_priority_mask
00039b2c g     O .rwdata	00000002 focus_width
00021728 g     F .text	00000168 is_ball
0002197c g     F .text	000000dc distance_calc
0002b2f8 g     F .text	0000001c __vfprintf_internal
000355c4 g     F .text	000001dc altera_avalon_uart_read
00030e54 g     F .text	0000005c _wctomb_r
000216a0 g     F .text	00000088 MIPI_Init
00032b7c g     F .text	000008fc .hidden __subdf3
000218f4 g     F .text	00000044 distance_check_z1
00033714 g     F .text	00000120 fcntl
0002dd40 g     F .text	000000b0 __lo0bits
00039b68 g     O .rwdata	00000008 alt_alarm_list
00035d34 g     F .text	00000060 _do_ctors
00030d64 g     F .text	000000c0 wcrtomb
000335dc g     F .text	000000d0 close
00024ad0 g     F .text	00000080 OV8865_read_AF
00033a68 g     F .text	00000084 alt_load
00030c48 g     F .text	00000080 fputwc
00028158 g     F .text	00000014 free
00027168 g     F .text	00000004 __sinit_lock_acquire
0002dab4 g     F .text	00000120 __multadd
0002da8c g     F .text	00000028 _Bfree



Disassembly of section .entry:

00020000 <__reset>:
#if NIOS2_ICACHE_SIZE > 0 && defined(ALT_ALLOW_CODE_AT_RESET) && (!defined(ALT_SIM_OPTIMIZE) || defined(NIOS2_ECC_PRESENT))
    /* Assume the instruction cache size is always a power of two. */
#if NIOS2_ICACHE_SIZE > 0x8000
    movhi r2, %hi(NIOS2_ICACHE_SIZE)
#else
    movui r2, NIOS2_ICACHE_SIZE
   20000:	00840014 	movui	r2,4096
#endif

0:
    initi r2
   20004:	1001483a 	initi	r2
    addi r2, r2, -NIOS2_ICACHE_LINE_SIZE
   20008:	10bff804 	addi	r2,r2,-32
    bgt r2, zero, 0b
   2000c:	00bffd16 	blt	zero,r2,20004 <_gp+0xfffde4dc>
 * Jump to the _start entry point in the .text section if reset code
 * is allowed or if optimizing for RTL simulation.
 */
#if defined(ALT_ALLOW_CODE_AT_RESET) || defined(ALT_SIM_OPTIMIZE)
    /* Jump to the _start entry point in the .text section. */
    movhi r1, %hi(_start)
   20010:	004000b4 	movhi	at,2
    ori r1, r1, %lo(_start)
   20014:	08409214 	ori	at,at,584
    jmp r1
   20018:	0800683a 	jmp	at
   2001c:	00000000 	call	0 <__alt_mem_onchip_memory2_0-0x20000>

Disassembly of section .exceptions:

00020020 <alt_exception>:

#else /* ALT_EXCEPTION_STACK disabled */
        /* 
         * Reserve space on normal stack for registers about to be pushed.
         */
        addi  sp, sp, -76
   20020:	deffed04 	addi	sp,sp,-76
         * documentation for details).
         *
         * Leave a gap in the stack frame at 4(sp) for the muldiv handler to
         * store zero into.
         */
        stw   ra,  0(sp)
   20024:	dfc00015 	stw	ra,0(sp)
        stw   r1,   8(sp)
   20028:	d8400215 	stw	at,8(sp)
        stw   r2,  12(sp)
   2002c:	d8800315 	stw	r2,12(sp)
        stw   r3,  16(sp)
   20030:	d8c00415 	stw	r3,16(sp)
        stw   r4,  20(sp)
   20034:	d9000515 	stw	r4,20(sp)
        stw   r5,  24(sp)
   20038:	d9400615 	stw	r5,24(sp)
        stw   r6,  28(sp)
   2003c:	d9800715 	stw	r6,28(sp)
        stw   r7,  32(sp)
   20040:	d9c00815 	stw	r7,32(sp)
        rdctl r5, estatus   /* Read early to avoid usage stall */
   20044:	000b307a 	rdctl	r5,estatus
        stw   r8,  36(sp)
   20048:	da000915 	stw	r8,36(sp)
        stw   r9,  40(sp)
   2004c:	da400a15 	stw	r9,40(sp)
        stw   r10, 44(sp)
   20050:	da800b15 	stw	r10,44(sp)
        stw   r11, 48(sp)
   20054:	dac00c15 	stw	r11,48(sp)
        stw   r12, 52(sp)
   20058:	db000d15 	stw	r12,52(sp)
        stw   r13, 56(sp)
   2005c:	db400e15 	stw	r13,56(sp)
        stw   r14, 60(sp)
   20060:	db800f15 	stw	r14,60(sp)
        stw   r15, 64(sp)
   20064:	dbc01015 	stw	r15,64(sp)
        /*
         * ea-4 contains the address of the instruction being executed
         * when the exception occured. For interrupt exceptions, we will
         * will be re-issue the isntruction. Store it in 72(sp)
         */
        stw   r5,  68(sp)  /* estatus */
   20068:	d9401115 	stw	r5,68(sp)
        addi  r15, ea, -4  /* instruction that caused exception */
   2006c:	ebffff04 	addi	r15,ea,-4
        stw   r15,  72(sp)
   20070:	dbc01215 	stw	r15,72(sp)
#else
        /*
         * Test to see if the exception was a software exception or caused 
         * by an external interrupt, and vector accordingly.
         */
        rdctl r4, ipending
   20074:	0009313a 	rdctl	r4,ipending
        andi  r2, r5, 1
   20078:	2880004c 	andi	r2,r5,1
        beq   r2, zero, .Lnot_irq
   2007c:	10000326 	beq	r2,zero,2008c <alt_exception+0x6c>
        beq   r4, zero, .Lnot_irq
   20080:	20000226 	beq	r4,zero,2008c <alt_exception+0x6c>
        /*
         * Now that all necessary registers have been preserved, call 
         * alt_irq_handler() to process the interrupts.
         */

        call alt_irq_handler
   20084:	00200fc0 	call	200fc <alt_irq_handler>

        .section .exceptions.irqreturn, "xa"

        br    .Lexception_exit
   20088:	00000706 	br	200a8 <alt_exception+0x88>
         * upon completion, so we write ea (address of instruction *after*
         * the one where the exception occured) into 72(sp). The actual
         * instruction that caused the exception is written in r2, which these
         * handlers will utilize.
         */
        stw ea, 72(sp) /* EA is PC+4 so will skip over instruction causing exception */
   2008c:	df401215 	stw	ea,72(sp)
.Lunknown_16bit:
        addi.n r4, r4, 2 /* Need PC+2 to skip over instruction causing exception */
        stw r4, 72(sp)

#else /* CDX is not Enabled and all instructions are 32bits */
        ldw r2, -4(ea) /* Instruction value that caused exception */
   20090:	e8bfff17 	ldw	r2,-4(ea)
         * debugger is present) or go into an infinite loop since the
         * handling behavior is undefined; in that case we will not return here.
         */

        /* Load exception-causing address as first argument (r4) */
        addi   r4, ea, -4
   20094:	e93fff04 	addi	r4,ea,-4

        /* Call the instruction-exception entry */
        call   alt_instruction_exception_entry
   20098:	00201d40 	call	201d4 <alt_instruction_exception_entry>
         * instruction
         *
         * Return code was 0: Skip. The instruction after the exception is
         * already stored in 72(sp).
         */
        bne   r2, r0, .Lexception_exit
   2009c:	1000021e 	bne	r2,zero,200a8 <alt_exception+0x88>

        /*
         * Otherwise, modify 72(sp) to re-issue the instruction that caused the
         * exception.
         */
        addi  r15, ea, -4  /* instruction that caused exception */
   200a0:	ebffff04 	addi	r15,ea,-4
        stw   r15,  72(sp)
   200a4:	dbc01215 	stw	r15,72(sp)
        /* 
         * Restore the saved registers, so that all general purpose registers 
         * have been restored to their state at the time the interrupt occured.
         */

        ldw   r5,  68(sp)
   200a8:	d9401117 	ldw	r5,68(sp)
        ldw   ea,  72(sp)  /* This becomes the PC once eret is executed */
   200ac:	df401217 	ldw	ea,72(sp)
        ldw   ra,   0(sp)
   200b0:	dfc00017 	ldw	ra,0(sp)

        wrctl estatus, r5
   200b4:	2801707a 	wrctl	estatus,r5

        ldw   r1,   8(sp)
   200b8:	d8400217 	ldw	at,8(sp)
        ldw   r2,  12(sp)
   200bc:	d8800317 	ldw	r2,12(sp)
        ldw   r3,  16(sp)
   200c0:	d8c00417 	ldw	r3,16(sp)
        ldw   r4,  20(sp)
   200c4:	d9000517 	ldw	r4,20(sp)
        ldw   r5,  24(sp)
   200c8:	d9400617 	ldw	r5,24(sp)
        ldw   r6,  28(sp)
   200cc:	d9800717 	ldw	r6,28(sp)
        ldw   r7,  32(sp)
   200d0:	d9c00817 	ldw	r7,32(sp)

#if defined(ALT_EXCEPTION_STACK) && defined(ALT_STACK_CHECK)
        ldw   et, %gprel(alt_exception_old_stack_limit)(gp)
#endif

        ldw   r8,  36(sp)
   200d4:	da000917 	ldw	r8,36(sp)
        ldw   r9,  40(sp)
   200d8:	da400a17 	ldw	r9,40(sp)
        ldw   r10, 44(sp)
   200dc:	da800b17 	ldw	r10,44(sp)
        ldw   r11, 48(sp)
   200e0:	dac00c17 	ldw	r11,48(sp)
        ldw   r12, 52(sp)
   200e4:	db000d17 	ldw	r12,52(sp)
        ldw   r13, 56(sp)
   200e8:	db400e17 	ldw	r13,56(sp)
        ldw   r14, 60(sp)
   200ec:	db800f17 	ldw	r14,60(sp)
        ldw   r15, 64(sp)
   200f0:	dbc01017 	ldw	r15,64(sp)
        stw   et, %gprel(alt_stack_limit_value)(gp)
        stw   zero, %gprel(alt_exception_old_stack_limit)(gp)
#endif /* ALT_STACK_CHECK */
        ldw   sp,  76(sp)
#else /* ALT_EXCEPTION_STACK disabled */
        addi  sp, sp, 76
   200f4:	dec01304 	addi	sp,sp,76

        /*
         * Return to the interrupted instruction.
         */

        eret
   200f8:	ef80083a 	eret

000200fc <alt_irq_handler>:
 * instruction is present if the macro ALT_CI_INTERRUPT_VECTOR defined.
 */

void alt_irq_handler (void) __attribute__ ((section (".exceptions")));
void alt_irq_handler (void)
{
   200fc:	defff904 	addi	sp,sp,-28
   20100:	dfc00615 	stw	ra,24(sp)
   20104:	df000515 	stw	fp,20(sp)
   20108:	df000504 	addi	fp,sp,20
  
  /*
   * Notify the operating system that we are at interrupt level.
   */ 
  
  ALT_OS_INT_ENTER();
   2010c:	0001883a 	nop
#ifndef NIOS2_EIC_PRESENT
static ALT_INLINE alt_u32 ALT_ALWAYS_INLINE alt_irq_pending (void)
{
  alt_u32 active;

  NIOS2_READ_IPENDING (active);
   20110:	0005313a 	rdctl	r2,ipending
   20114:	e0bffe15 	stw	r2,-8(fp)

  return active;
   20118:	e0bffe17 	ldw	r2,-8(fp)
   * Consider the case where the high priority interupt is asserted during
   * the interrupt entry sequence for a lower priority interrupt to see why
   * this is the case.
   */

  active = alt_irq_pending ();
   2011c:	e0bffb15 	stw	r2,-20(fp)

  do
  {
    i = 0;
   20120:	e03ffd15 	stw	zero,-12(fp)
    mask = 1;
   20124:	00800044 	movi	r2,1
   20128:	e0bffc15 	stw	r2,-16(fp)
     * called to clear the interrupt condition.
     */

    do
    {
      if (active & mask)
   2012c:	e0fffb17 	ldw	r3,-20(fp)
   20130:	e0bffc17 	ldw	r2,-16(fp)
   20134:	1884703a 	and	r2,r3,r2
   20138:	10001526 	beq	r2,zero,20190 <alt_irq_handler+0x94>
      { 
#ifdef ALT_ENHANCED_INTERRUPT_API_PRESENT
        alt_irq[i].handler(alt_irq[i].context); 
#else
        alt_irq[i].handler(alt_irq[i].context, i); 
   2013c:	00800134 	movhi	r2,4
   20140:	10afd904 	addi	r2,r2,-16540
   20144:	e0fffd17 	ldw	r3,-12(fp)
   20148:	180690fa 	slli	r3,r3,3
   2014c:	10c5883a 	add	r2,r2,r3
   20150:	10c00017 	ldw	r3,0(r2)
   20154:	00800134 	movhi	r2,4
   20158:	10afd904 	addi	r2,r2,-16540
   2015c:	e13ffd17 	ldw	r4,-12(fp)
   20160:	200890fa 	slli	r4,r4,3
   20164:	1105883a 	add	r2,r2,r4
   20168:	10800104 	addi	r2,r2,4
   2016c:	10800017 	ldw	r2,0(r2)
   20170:	e17ffd17 	ldw	r5,-12(fp)
   20174:	1009883a 	mov	r4,r2
   20178:	183ee83a 	callr	r3
#endif
        break;
   2017c:	0001883a 	nop
#ifndef NIOS2_EIC_PRESENT
static ALT_INLINE alt_u32 ALT_ALWAYS_INLINE alt_irq_pending (void)
{
  alt_u32 active;

  NIOS2_READ_IPENDING (active);
   20180:	0005313a 	rdctl	r2,ipending
   20184:	e0bfff15 	stw	r2,-4(fp)

  return active;
   20188:	e0bfff17 	ldw	r2,-4(fp)
   2018c:	00000706 	br	201ac <alt_irq_handler+0xb0>
      }
      mask <<= 1;
   20190:	e0bffc17 	ldw	r2,-16(fp)
   20194:	1085883a 	add	r2,r2,r2
   20198:	e0bffc15 	stw	r2,-16(fp)
      i++;
   2019c:	e0bffd17 	ldw	r2,-12(fp)
   201a0:	10800044 	addi	r2,r2,1
   201a4:	e0bffd15 	stw	r2,-12(fp)

    } while (1);
   201a8:	003fe006 	br	2012c <_gp+0xfffde604>

    active = alt_irq_pending ();
   201ac:	e0bffb15 	stw	r2,-20(fp)
    
  } while (active);
   201b0:	e0bffb17 	ldw	r2,-20(fp)
   201b4:	103fda1e 	bne	r2,zero,20120 <_gp+0xfffde5f8>

  /*
   * Notify the operating system that interrupt processing is complete.
   */ 

  ALT_OS_INT_EXIT();
   201b8:	0001883a 	nop
}
   201bc:	0001883a 	nop
   201c0:	e037883a 	mov	sp,fp
   201c4:	dfc00117 	ldw	ra,4(sp)
   201c8:	df000017 	ldw	fp,0(sp)
   201cc:	dec00204 	addi	sp,sp,8
   201d0:	f800283a 	ret

000201d4 <alt_instruction_exception_entry>:
 * that handler if it has been registered. Absent a handler, it will
 * break break or hang as discussed below.
 */
int 
alt_instruction_exception_entry (alt_u32 exception_pc)
{
   201d4:	defffb04 	addi	sp,sp,-20
   201d8:	dfc00415 	stw	ra,16(sp)
   201dc:	df000315 	stw	fp,12(sp)
   201e0:	df000304 	addi	fp,sp,12
   201e4:	e13fff15 	stw	r4,-4(fp)
 * NIOS2_EXCEPTION_CAUSE_NOT_PRESENT. Your handling routine should
 * check the validity of the cause argument before proceeding.
 */
#ifdef NIOS2_HAS_EXTRA_EXCEPTION_INFO
  /* Get exception cause & "badaddr" */
  NIOS2_READ_EXCEPTION(cause);
   201e8:	000531fa 	rdctl	r2,exception
   201ec:	e0bffd15 	stw	r2,-12(fp)
  cause = ( (cause & NIOS2_EXCEPTION_REG_CAUSE_MASK) >>
   201f0:	e0bffd17 	ldw	r2,-12(fp)
   201f4:	10801f0c 	andi	r2,r2,124
   201f8:	1004d0ba 	srli	r2,r2,2
   201fc:	e0bffd15 	stw	r2,-12(fp)
              NIOS2_EXCEPTION_REG_CAUSE_OFST );

  NIOS2_READ_BADADDR(badaddr);
   20200:	0005333a 	rdctl	r2,badaddr
   20204:	e0bffe15 	stw	r2,-8(fp)
#else
  cause = NIOS2_EXCEPTION_CAUSE_NOT_PRESENT;
  badaddr = 0;
#endif /* NIOS2_HAS_EXTRA_EXCEPTION_INFO */

  if(alt_instruction_exception_handler) {
   20208:	d0a90417 	ldw	r2,-23536(gp)
   2020c:	10000726 	beq	r2,zero,2022c <alt_instruction_exception_entry+0x58>
     * Call handler. Its return value indicates whether the exception-causing
     * instruction should be re-issued. The code that called us,
     * alt_eceptions_entry.S, will look at this value and adjust the ea
     * register as necessary
     */
    return alt_instruction_exception_handler(cause, exception_pc, badaddr);
   20210:	d0a90417 	ldw	r2,-23536(gp)
   20214:	e0fffd17 	ldw	r3,-12(fp)
   20218:	e1bffe17 	ldw	r6,-8(fp)
   2021c:	e17fff17 	ldw	r5,-4(fp)
   20220:	1809883a 	mov	r4,r3
   20224:	103ee83a 	callr	r2
   20228:	00000206 	br	20234 <alt_instruction_exception_entry+0x60>
   *    (a peripheral which negates its interrupt output before its
   *    interrupt handler has been executed will cause spurious interrupts)
   */
  else {
#ifdef NIOS2_HAS_DEBUG_STUB
    NIOS2_BREAK();
   2022c:	003da03a 	break	0
      ;
#endif /* NIOS2_HAS_DEBUG_STUB */
  }

  /* We should not get here. Remove compiler warning. */
  return NIOS2_EXCEPTION_RETURN_REISSUE_INST;
   20230:	0005883a 	mov	r2,zero
}
   20234:	e037883a 	mov	sp,fp
   20238:	dfc00117 	ldw	ra,4(sp)
   2023c:	df000017 	ldw	fp,0(sp)
   20240:	dec00204 	addi	sp,sp,8
   20244:	f800283a 	ret

Disassembly of section .text:

00020248 <_start>:

    /* Assume the data cache size is always a power of two. */
#if NIOS2_DCACHE_SIZE > 0x8000
    movhi r2, %hi(NIOS2_DCACHE_SIZE)
#else
    movui r2, NIOS2_DCACHE_SIZE
   20248:	00820014 	movui	r2,2048
#endif

0:
    initd 0(r2)
   2024c:	10000033 	initd	0(r2)
#ifdef NIOS2_ECC_PRESENT
    addi r2, r2, -4
#else
    addi r2, r2, -NIOS2_DCACHE_LINE_SIZE
   20250:	10bff804 	addi	r2,r2,-32
#endif
    bgt r2, zero, 0b
   20254:	00bffd16 	blt	zero,r2,2024c <_gp+0xfffde724>

    /*
     * Now that the caches are initialized, set up the stack pointer and global pointer.
     * The values provided by the linker are assumed to be correctly aligned.
     */
    movhi sp, %hi(__alt_stack_pointer)
   20258:	06c00134 	movhi	sp,4
    ori sp, sp, %lo(__alt_stack_pointer)
   2025c:	dec00014 	ori	sp,sp,0
    movhi gp, %hi(_gp)
   20260:	06800134 	movhi	gp,4
    ori gp, gp, %lo(_gp)
   20264:	d686ca14 	ori	gp,gp,6952
 */
#ifndef ALT_SIM_OPTIMIZE
    /* Log that the BSS is about to be cleared. */
    ALT_LOG_PUTS(alt_log_msg_bss)

    movhi r2, %hi(__bss_start)
   20268:	008000f4 	movhi	r2,3
    ori r2, r2, %lo(__bss_start)
   2026c:	10afc114 	ori	r2,r2,48900

    movhi r3, %hi(__bss_end)
   20270:	00c000f4 	movhi	r3,3
    ori r3, r3, %lo(__bss_end)
   20274:	18f01914 	ori	r3,r3,49252

    beq r2, r3, 1f
   20278:	10c00326 	beq	r2,r3,20288 <_start+0x40>

0:
    stw zero, (r2)
   2027c:	10000015 	stw	zero,0(r2)
    addi r2, r2, 4
   20280:	10800104 	addi	r2,r2,4
    bltu r2, r3, 0b
   20284:	10fffd36 	bltu	r2,r3,2027c <_gp+0xfffde754>
     * section aren't defined until alt_load() has been called).
     */
    mov   et, zero
#endif

    call alt_load
   20288:	0033a680 	call	33a68 <alt_load>

    /* Log that alt_main is about to be called. */
    ALT_LOG_PUTS(alt_log_msg_alt_main)

    /* Call the C entry point. It should never return. */
    call alt_main
   2028c:	0033bfc0 	call	33bfc <alt_main>

00020290 <alt_after_alt_main>:

    /* Wait in infinite loop in case alt_main does return. */
alt_after_alt_main:
    br alt_after_alt_main
   20290:	003fff06 	br	20290 <_gp+0xfffde768>

00020294 <Write32_Data>:
#define SLEEP_TIME 250  //us
#define ACK_SLEEP_TIME 250 //us
#define TRUE 1
#define FALSE 0

bool Write32_Data(alt_32 base_address, alt_32 offset_address, alt_32 Data){
   20294:	defffb04 	addi	sp,sp,-20
   20298:	df000415 	stw	fp,16(sp)
   2029c:	df000404 	addi	fp,sp,16
   202a0:	e13ffd15 	stw	r4,-12(fp)
   202a4:	e17ffe15 	stw	r5,-8(fp)
   202a8:	e1bfff15 	stw	r6,-4(fp)
	bool bPass;
    IOWR(base_address, offset_address,Data);
   202ac:	e0bffe17 	ldw	r2,-8(fp)
   202b0:	1085883a 	add	r2,r2,r2
   202b4:	1085883a 	add	r2,r2,r2
   202b8:	1007883a 	mov	r3,r2
   202bc:	e0bffd17 	ldw	r2,-12(fp)
   202c0:	1885883a 	add	r2,r3,r2
   202c4:	1007883a 	mov	r3,r2
   202c8:	e0bfff17 	ldw	r2,-4(fp)
   202cc:	18800035 	stwio	r2,0(r3)
    bPass=TRUE;
   202d0:	00800044 	movi	r2,1
   202d4:	e0bffc15 	stw	r2,-16(fp)
    return bPass;
   202d8:	e0bffc17 	ldw	r2,-16(fp)
}
   202dc:	e037883a 	mov	sp,fp
   202e0:	df000017 	ldw	fp,0(sp)
   202e4:	dec00104 	addi	sp,sp,4
   202e8:	f800283a 	ret

000202ec <Read32_Data>:



bool  Read32_Data(alt_32 base_address, alt_32 offset_address, alt_32 *pData32){
   202ec:	defffb04 	addi	sp,sp,-20
   202f0:	df000415 	stw	fp,16(sp)
   202f4:	df000404 	addi	fp,sp,16
   202f8:	e13ffd15 	stw	r4,-12(fp)
   202fc:	e17ffe15 	stw	r5,-8(fp)
   20300:	e1bfff15 	stw	r6,-4(fp)
	bool bPass;
	*pData32 =IORD(base_address ,offset_address  );
   20304:	e0bffe17 	ldw	r2,-8(fp)
   20308:	1085883a 	add	r2,r2,r2
   2030c:	1085883a 	add	r2,r2,r2
   20310:	1007883a 	mov	r3,r2
   20314:	e0bffd17 	ldw	r2,-12(fp)
   20318:	1885883a 	add	r2,r3,r2
   2031c:	10c00037 	ldwio	r3,0(r2)
   20320:	e0bfff17 	ldw	r2,-4(fp)
   20324:	10c00015 	stw	r3,0(r2)
	bPass=TRUE;
   20328:	00800044 	movi	r2,1
   2032c:	e0bffc15 	stw	r2,-16(fp)
    return bPass;
   20330:	e0bffc17 	ldw	r2,-16(fp)
}
   20334:	e037883a 	mov	sp,fp
   20338:	df000017 	ldw	fp,0(sp)
   2033c:	dec00104 	addi	sp,sp,4
   20340:	f800283a 	ret

00020344 <oc_i2c_init>:

bool oc_i2c_init(alt_32 i2c_base){
   20344:	defffa04 	addi	sp,sp,-24
   20348:	dfc00515 	stw	ra,20(sp)
   2034c:	df000415 	stw	fp,16(sp)
   20350:	df000404 	addi	fp,sp,16
   20354:	e13fff15 	stw	r4,-4(fp)
	bool bSuccess;
	const alt_32 ref_clk = 50*1000*1000; // 50MHz
   20358:	0080bef4 	movhi	r2,763
   2035c:	10bc2004 	addi	r2,r2,-3968
   20360:	e0bffc15 	stw	r2,-16(fp)
	const alt_32 i2c_clk = 400*1000; // 400KHz
   20364:	008001b4 	movhi	r2,6
   20368:	1086a004 	addi	r2,r2,6784
   2036c:	e0bffd15 	stw	r2,-12(fp)

	bSuccess = oc_i2c_init_ex(i2c_base, ref_clk, i2c_clk);
   20370:	e1bffd17 	ldw	r6,-12(fp)
   20374:	e17ffc17 	ldw	r5,-16(fp)
   20378:	e13fff17 	ldw	r4,-4(fp)
   2037c:	002039c0 	call	2039c <oc_i2c_init_ex>
   20380:	e0bffe15 	stw	r2,-8(fp)

	return bSuccess;
   20384:	e0bffe17 	ldw	r2,-8(fp)
}
   20388:	e037883a 	mov	sp,fp
   2038c:	dfc00117 	ldw	ra,4(sp)
   20390:	df000017 	ldw	fp,0(sp)
   20394:	dec00204 	addi	sp,sp,8
   20398:	f800283a 	ret

0002039c <oc_i2c_init_ex>:

bool  oc_i2c_init_ex(alt_32 i2c_base, alt_32 ref_clk, alt_32 i2c_clk)
{
   2039c:	defff604 	addi	sp,sp,-40
   203a0:	dfc00915 	stw	ra,36(sp)
   203a4:	df000815 	stw	fp,32(sp)
   203a8:	df000804 	addi	fp,sp,32
   203ac:	e13ffd15 	stw	r4,-12(fp)
   203b0:	e17ffe15 	stw	r5,-8(fp)
   203b4:	e1bfff15 	stw	r6,-4(fp)
	bool bSuccess=TRUE;
   203b8:	00800044 	movi	r2,1
   203bc:	e0bff815 	stw	r2,-32(fp)
	alt_32 read_data;
	alt_32 prescale;
	alt_u8 prescale_high;
	alt_u8 prescale_low;
	const alt_u8 ControlValue = 0x80;
   203c0:	00bfe004 	movi	r2,-128
   203c4:	e0bff905 	stb	r2,-28(fp)

    // I2c sysclock =50M hz
	// i2c scl max 400k
	//scl =sysclock/(prescale*5)
	prescale = (ref_clk/(5*i2c_clk))-1;
   203c8:	e0bfff17 	ldw	r2,-4(fp)
   203cc:	10800164 	muli	r2,r2,5
   203d0:	100b883a 	mov	r5,r2
   203d4:	e13ffe17 	ldw	r4,-8(fp)
   203d8:	00254f00 	call	254f0 <__divsi3>
   203dc:	10bfffc4 	addi	r2,r2,-1
   203e0:	e0bffa15 	stw	r2,-24(fp)
	prescale_low = prescale & 0xFF;
   203e4:	e0bffa17 	ldw	r2,-24(fp)
   203e8:	e0bffb05 	stb	r2,-20(fp)
	prescale_high = (prescale >> 8) & 0xFF;
   203ec:	e0bffa17 	ldw	r2,-24(fp)
   203f0:	1005d23a 	srai	r2,r2,8
   203f4:	e0bffb45 	stb	r2,-19(fp)

   IOWR(i2c_base, 0, prescale_low);//write low byte of  prescale (reg 0)
   203f8:	e0bffd17 	ldw	r2,-12(fp)
   203fc:	e0fffb03 	ldbu	r3,-20(fp)
   20400:	10c00035 	stwio	r3,0(r2)
   IOWR(i2c_base, 1, prescale_high);//write high byte of prescale (reg 1)
   20404:	e0bffd17 	ldw	r2,-12(fp)
   20408:	10800104 	addi	r2,r2,4
   2040c:	1007883a 	mov	r3,r2
   20410:	e0bffb43 	ldbu	r2,-19(fp)
   20414:	18800035 	stwio	r2,0(r3)

   //enable the I2C core, but disable the IRQ
   IOWR( i2c_base, 2, ControlValue);
   20418:	e0bffd17 	ldw	r2,-12(fp)
   2041c:	10800204 	addi	r2,r2,8
   20420:	1007883a 	mov	r3,r2
   20424:	e0bff903 	ldbu	r2,-28(fp)
   20428:	18800035 	stwio	r2,0(r3)


    // check prescale low byte
    if (bSuccess){
   2042c:	e0bff817 	ldw	r2,-32(fp)
   20430:	10000826 	beq	r2,zero,20454 <oc_i2c_init_ex+0xb8>
    	read_data =IORD(i2c_base, 0);
   20434:	e0bffd17 	ldw	r2,-12(fp)
   20438:	10800037 	ldwio	r2,0(r2)
   2043c:	e0bffc15 	stw	r2,-16(fp)
        if( (read_data & 0x00ff) != prescale_low ){
   20440:	e0bffc17 	ldw	r2,-16(fp)
   20444:	10c03fcc 	andi	r3,r2,255
   20448:	e0bffb03 	ldbu	r2,-20(fp)
   2044c:	18800126 	beq	r3,r2,20454 <oc_i2c_init_ex+0xb8>
            bSuccess = FALSE;
   20450:	e03ff815 	stw	zero,-32(fp)
        }
    }

    // check prescale high byte
    if (bSuccess){
   20454:	e0bff817 	ldw	r2,-32(fp)
   20458:	10000926 	beq	r2,zero,20480 <oc_i2c_init_ex+0xe4>
    	read_data =IORD(i2c_base, 1);
   2045c:	e0bffd17 	ldw	r2,-12(fp)
   20460:	10800104 	addi	r2,r2,4
   20464:	10800037 	ldwio	r2,0(r2)
   20468:	e0bffc15 	stw	r2,-16(fp)
        if( (read_data & 0x00ff) != prescale_high ){
   2046c:	e0bffc17 	ldw	r2,-16(fp)
   20470:	10c03fcc 	andi	r3,r2,255
   20474:	e0bffb43 	ldbu	r2,-19(fp)
   20478:	18800126 	beq	r3,r2,20480 <oc_i2c_init_ex+0xe4>
            bSuccess = FALSE;
   2047c:	e03ff815 	stw	zero,-32(fp)
        }
    }

    // check control
    if (bSuccess){
   20480:	e0bff817 	ldw	r2,-32(fp)
   20484:	10000926 	beq	r2,zero,204ac <oc_i2c_init_ex+0x110>
    	read_data =IORD(i2c_base, 2);
   20488:	e0bffd17 	ldw	r2,-12(fp)
   2048c:	10800204 	addi	r2,r2,8
   20490:	10800037 	ldwio	r2,0(r2)
   20494:	e0bffc15 	stw	r2,-16(fp)
        if( (read_data & 0x00ff) != ControlValue ){
   20498:	e0bffc17 	ldw	r2,-16(fp)
   2049c:	10c03fcc 	andi	r3,r2,255
   204a0:	e0bff903 	ldbu	r2,-28(fp)
   204a4:	18800126 	beq	r3,r2,204ac <oc_i2c_init_ex+0x110>
            bSuccess = FALSE;
   204a8:	e03ff815 	stw	zero,-32(fp)
        }
    }

   if (bSuccess){
   204ac:	e0bff817 	ldw	r2,-32(fp)
   204b0:	1000031e 	bne	r2,zero,204c0 <oc_i2c_init_ex+0x124>
//       printf("\nI2C core is enabled! \r\n");
   }
   else
       printf("\nI2C core is not enabled successfully! \r\n");
   204b4:	010000f4 	movhi	r4,3
   204b8:	211a0204 	addi	r4,r4,26632
   204bc:	0028c4c0 	call	28c4c <puts>

   return bSuccess;
   204c0:	e0bff817 	ldw	r2,-32(fp)

}
   204c4:	e037883a 	mov	sp,fp
   204c8:	dfc00117 	ldw	ra,4(sp)
   204cc:	df000017 	ldw	fp,0(sp)
   204d0:	dec00204 	addi	sp,sp,8
   204d4:	f800283a 	ret

000204d8 <oc_i2c_uninit>:

bool oc_i2c_uninit(alt_32 i2c_base)
{
   204d8:	defffa04 	addi	sp,sp,-24
   204dc:	dfc00515 	stw	ra,20(sp)
   204e0:	df000415 	stw	fp,16(sp)
   204e4:	df000404 	addi	fp,sp,16
   204e8:	e13fff15 	stw	r4,-4(fp)
	bool bSuccess=TRUE;
   204ec:	00800044 	movi	r2,1
   204f0:	e0bffc15 	stw	r2,-16(fp)
	alt_32 read_data;
	const alt_u8 ControlValue = 0x00;
   204f4:	e03ffd05 	stb	zero,-12(fp)

    IOWR( i2c_base, 2, ControlValue);
   204f8:	e0bfff17 	ldw	r2,-4(fp)
   204fc:	10800204 	addi	r2,r2,8
   20500:	1007883a 	mov	r3,r2
   20504:	e0bffd03 	ldbu	r2,-12(fp)
   20508:	18800035 	stwio	r2,0(r3)
   	read_data =IORD(i2c_base, 2);
   2050c:	e0bfff17 	ldw	r2,-4(fp)
   20510:	10800204 	addi	r2,r2,8
   20514:	10800037 	ldwio	r2,0(r2)
   20518:	e0bffe15 	stw	r2,-8(fp)
	if( (read_data & 0x00ff) != ControlValue ){
   2051c:	e0bffe17 	ldw	r2,-8(fp)
   20520:	10c03fcc 	andi	r3,r2,255
   20524:	e0bffd03 	ldbu	r2,-12(fp)
   20528:	18800126 	beq	r3,r2,20530 <oc_i2c_uninit+0x58>
            bSuccess = FALSE;
   2052c:	e03ffc15 	stw	zero,-16(fp)
    }

   if (bSuccess){
   20530:	e0bffc17 	ldw	r2,-16(fp)
   20534:	1000031e 	bne	r2,zero,20544 <oc_i2c_uninit+0x6c>
//       printf("\I2C core  is disabled! \r\n");
   }
   else
       printf("\I2C core is failed to disable! \r\n");
   20538:	010000f4 	movhi	r4,3
   2053c:	211a0d04 	addi	r4,r4,26676
   20540:	0028c4c0 	call	28c4c <puts>

   return bSuccess;
   20544:	e0bffc17 	ldw	r2,-16(fp)

}
   20548:	e037883a 	mov	sp,fp
   2054c:	dfc00117 	ldw	ra,4(sp)
   20550:	df000017 	ldw	fp,0(sp)
   20554:	dec00204 	addi	sp,sp,8
   20558:	f800283a 	ret

0002055c <ACK_single_check>:




bool  ACK_single_check(alt_32 i2c_base)
{
   2055c:	defffb04 	addi	sp,sp,-20
   20560:	dfc00415 	stw	ra,16(sp)
   20564:	df000315 	stw	fp,12(sp)
   20568:	df000304 	addi	fp,sp,12
   2056c:	e13fff15 	stw	r4,-4(fp)
	bool bSuccess=TRUE;
   20570:	00800044 	movi	r2,1
   20574:	e0bffd15 	stw	r2,-12(fp)
	alt_32 read_data;

    usleep(ACK_SLEEP_TIME);
   20578:	01003e84 	movi	r4,250
   2057c:	00343040 	call	34304 <usleep>
    read_data =IORD(i2c_base, 4);
   20580:	e0bfff17 	ldw	r2,-4(fp)
   20584:	10800404 	addi	r2,r2,16
   20588:	10800037 	ldwio	r2,0(r2)
   2058c:	e0bffe15 	stw	r2,-8(fp)
    if(read_data & 0x02)
   20590:	e0bffe17 	ldw	r2,-8(fp)
   20594:	1080008c 	andi	r2,r2,2
   20598:	10000126 	beq	r2,zero,205a0 <ACK_single_check+0x44>
            bSuccess = FALSE;
   2059c:	e03ffd15 	stw	zero,-12(fp)
     if (bSuccess){
   205a0:	e0bffd17 	ldw	r2,-12(fp)
   205a4:	10000a26 	beq	r2,zero,205d0 <ACK_single_check+0x74>
            usleep(ACK_SLEEP_TIME);
   205a8:	01003e84 	movi	r4,250
   205ac:	00343040 	call	34304 <usleep>
            read_data =IORD(i2c_base, 4);
   205b0:	e0bfff17 	ldw	r2,-4(fp)
   205b4:	10800404 	addi	r2,r2,16
   205b8:	10800037 	ldwio	r2,0(r2)
   205bc:	e0bffe15 	stw	r2,-8(fp)
                if(read_data & 0x80)
   205c0:	e0bffe17 	ldw	r2,-8(fp)
   205c4:	1080200c 	andi	r2,r2,128
   205c8:	10000126 	beq	r2,zero,205d0 <ACK_single_check+0x74>
                    bSuccess = FALSE;
   205cc:	e03ffd15 	stw	zero,-12(fp)
     }
    return bSuccess;
   205d0:	e0bffd17 	ldw	r2,-12(fp)
}
   205d4:	e037883a 	mov	sp,fp
   205d8:	dfc00117 	ldw	ra,4(sp)
   205dc:	df000017 	ldw	fp,0(sp)
   205e0:	dec00204 	addi	sp,sp,8
   205e4:	f800283a 	ret

000205e8 <ACK_check>:


bool  ACK_check(alt_32 i2c_base){
   205e8:	defffb04 	addi	sp,sp,-20
   205ec:	dfc00415 	stw	ra,16(sp)
   205f0:	df000315 	stw	fp,12(sp)
   205f4:	df000304 	addi	fp,sp,12
   205f8:	e13fff15 	stw	r4,-4(fp)
    bool bSuccess = FALSE;
   205fc:	e03ffd15 	stw	zero,-12(fp)
    int i=0;
   20600:	e03ffe15 	stw	zero,-8(fp)

    while(!bSuccess && i++ < 10){
   20604:	00000306 	br	20614 <ACK_check+0x2c>
        bSuccess = ACK_single_check(i2c_base);
   20608:	e13fff17 	ldw	r4,-4(fp)
   2060c:	002055c0 	call	2055c <ACK_single_check>
   20610:	e0bffd15 	stw	r2,-12(fp)

bool  ACK_check(alt_32 i2c_base){
    bool bSuccess = FALSE;
    int i=0;

    while(!bSuccess && i++ < 10){
   20614:	e0bffd17 	ldw	r2,-12(fp)
   20618:	1000051e 	bne	r2,zero,20630 <ACK_check+0x48>
   2061c:	e0bffe17 	ldw	r2,-8(fp)
   20620:	10c00044 	addi	r3,r2,1
   20624:	e0fffe15 	stw	r3,-8(fp)
   20628:	10800290 	cmplti	r2,r2,10
   2062c:	103ff61e 	bne	r2,zero,20608 <_gp+0xfffdeae0>
        bSuccess = ACK_single_check(i2c_base);
    }

    return bSuccess;
   20630:	e0bffd17 	ldw	r2,-12(fp)
}
   20634:	e037883a 	mov	sp,fp
   20638:	dfc00117 	ldw	ra,4(sp)
   2063c:	df000017 	ldw	fp,0(sp)
   20640:	dec00204 	addi	sp,sp,8
   20644:	f800283a 	ret

00020648 <OC_I2C_Write>:

bool  OC_I2C_Write(alt_32 i2c_base,alt_u8 device_address,alt_u8 sub_address, alt_u8 *pData, int nWriteLength)
{
   20648:	defff904 	addi	sp,sp,-28
   2064c:	dfc00615 	stw	ra,24(sp)
   20650:	df000515 	stw	fp,20(sp)
   20654:	df000504 	addi	fp,sp,20
   20658:	e13ffc15 	stw	r4,-16(fp)
   2065c:	2807883a 	mov	r3,r5
   20660:	3005883a 	mov	r2,r6
   20664:	e1ffff15 	stw	r7,-4(fp)
   20668:	e0fffd05 	stb	r3,-12(fp)
   2066c:	e0bffe05 	stb	r2,-8(fp)
    //DWORD reg_data = 0x0;
    int i;

   //set the tx reg audio chip dev address with write bit
   if (!Write32_Data( i2c_base, 3,device_address)){
   20670:	e0bffd03 	ldbu	r2,-12(fp)
   20674:	100d883a 	mov	r6,r2
   20678:	014000c4 	movi	r5,3
   2067c:	e13ffc17 	ldw	r4,-16(fp)
   20680:	00202940 	call	20294 <Write32_Data>
   20684:	1000051e 	bne	r2,zero,2069c <OC_I2C_Write+0x54>
       printf("OC_I2C_Write error[0]\r\n");
   20688:	010000f4 	movhi	r4,3
   2068c:	211a1604 	addi	r4,r4,26712
   20690:	0028c4c0 	call	28c4c <puts>
       return FALSE;
   20694:	0005883a 	mov	r2,zero
   20698:	00006606 	br	20834 <OC_I2C_Write+0x1ec>
   }
   //set STA and WR bits(bit7 and bit4)
   if (!Write32_Data( i2c_base, 4,0x90)){
   2069c:	01802404 	movi	r6,144
   206a0:	01400104 	movi	r5,4
   206a4:	e13ffc17 	ldw	r4,-16(fp)
   206a8:	00202940 	call	20294 <Write32_Data>
   206ac:	1000051e 	bne	r2,zero,206c4 <OC_I2C_Write+0x7c>
       printf("OC_I2C_Write error[1]\r\n");
   206b0:	010000f4 	movhi	r4,3
   206b4:	211a1c04 	addi	r4,r4,26736
   206b8:	0028c4c0 	call	28c4c <puts>
       return FALSE;
   206bc:	0005883a 	mov	r2,zero
   206c0:	00005c06 	br	20834 <OC_I2C_Write+0x1ec>
   }

   //wait TIP bit go to 0 to end Tx
    if(!ACK_check( i2c_base)){
   206c4:	e13ffc17 	ldw	r4,-16(fp)
   206c8:	00205e80 	call	205e8 <ACK_check>
   206cc:	1000051e 	bne	r2,zero,206e4 <OC_I2C_Write+0x9c>
        printf("OC_I2C_Write error[2]\r\n");
   206d0:	010000f4 	movhi	r4,3
   206d4:	211a2204 	addi	r4,r4,26760
   206d8:	0028c4c0 	call	28c4c <puts>
        return FALSE;
   206dc:	0005883a 	mov	r2,zero
   206e0:	00005406 	br	20834 <OC_I2C_Write+0x1ec>
    }
  // printf("\n receive ACK-device address! \n");

   //set the txr reg data with reg address + 1 data MSB
   if (!Write32_Data( i2c_base, 3,sub_address)){
   206e4:	e0bffe03 	ldbu	r2,-8(fp)
   206e8:	100d883a 	mov	r6,r2
   206ec:	014000c4 	movi	r5,3
   206f0:	e13ffc17 	ldw	r4,-16(fp)
   206f4:	00202940 	call	20294 <Write32_Data>
   206f8:	1000051e 	bne	r2,zero,20710 <OC_I2C_Write+0xc8>
       printf("OC_I2C_Write error[3]\r\n");
   206fc:	010000f4 	movhi	r4,3
   20700:	211a2804 	addi	r4,r4,26784
   20704:	0028c4c0 	call	28c4c <puts>
       return FALSE;
   20708:	0005883a 	mov	r2,zero
   2070c:	00004906 	br	20834 <OC_I2C_Write+0x1ec>
   }

   //set WR bits(bit4)
    if (!Write32_Data( i2c_base, 4,0x10)){
   20710:	01800404 	movi	r6,16
   20714:	01400104 	movi	r5,4
   20718:	e13ffc17 	ldw	r4,-16(fp)
   2071c:	00202940 	call	20294 <Write32_Data>
   20720:	1000051e 	bne	r2,zero,20738 <OC_I2C_Write+0xf0>
        printf("OC_I2C_Write error[4]\r\n");
   20724:	010000f4 	movhi	r4,3
   20728:	211a2e04 	addi	r4,r4,26808
   2072c:	0028c4c0 	call	28c4c <puts>
        return FALSE;
   20730:	0005883a 	mov	r2,zero
   20734:	00003f06 	br	20834 <OC_I2C_Write+0x1ec>
    }

   //wait TIP bit go to 0 to end Tx
    if(!ACK_check( i2c_base)){
   20738:	e13ffc17 	ldw	r4,-16(fp)
   2073c:	00205e80 	call	205e8 <ACK_check>
   20740:	1000051e 	bne	r2,zero,20758 <OC_I2C_Write+0x110>
        printf("OC_I2C_Write error[5]\r\n");
   20744:	010000f4 	movhi	r4,3
   20748:	211a3404 	addi	r4,r4,26832
   2074c:	0028c4c0 	call	28c4c <puts>
        return FALSE;
   20750:	0005883a 	mov	r2,zero
   20754:	00003706 	br	20834 <OC_I2C_Write+0x1ec>
    }
 //  printf("\n receive ACK-reg address! \n");

#if 1
        for( i=nWriteLength-1;i>=0;i--){
   20758:	e0800217 	ldw	r2,8(fp)
   2075c:	10bfffc4 	addi	r2,r2,-1
   20760:	e0bffb15 	stw	r2,-20(fp)
   20764:	00002406 	br	207f8 <OC_I2C_Write+0x1b0>
        //set the txr reg data with the data
          if (!Write32_Data( i2c_base, 3,*(pData+i))){
   20768:	e0bffb17 	ldw	r2,-20(fp)
   2076c:	e0ffff17 	ldw	r3,-4(fp)
   20770:	1885883a 	add	r2,r3,r2
   20774:	10800003 	ldbu	r2,0(r2)
   20778:	10803fcc 	andi	r2,r2,255
   2077c:	100d883a 	mov	r6,r2
   20780:	014000c4 	movi	r5,3
   20784:	e13ffc17 	ldw	r4,-16(fp)
   20788:	00202940 	call	20294 <Write32_Data>
   2078c:	1000051e 	bne	r2,zero,207a4 <OC_I2C_Write+0x15c>
              printf("OC_I2C_Write error[6]\r\n");
   20790:	010000f4 	movhi	r4,3
   20794:	211a3a04 	addi	r4,r4,26856
   20798:	0028c4c0 	call	28c4c <puts>
              return FALSE;
   2079c:	0005883a 	mov	r2,zero
   207a0:	00002406 	br	20834 <OC_I2C_Write+0x1ec>
          }

        //set STO and WR bits(bit7 and bit4)
         if (!Write32_Data( i2c_base, 4,0x10)){
   207a4:	01800404 	movi	r6,16
   207a8:	01400104 	movi	r5,4
   207ac:	e13ffc17 	ldw	r4,-16(fp)
   207b0:	00202940 	call	20294 <Write32_Data>
   207b4:	1000051e 	bne	r2,zero,207cc <OC_I2C_Write+0x184>
             printf("OC_I2C_Write error[7]\r\n");
   207b8:	010000f4 	movhi	r4,3
   207bc:	211a4004 	addi	r4,r4,26880
   207c0:	0028c4c0 	call	28c4c <puts>
              return FALSE;
   207c4:	0005883a 	mov	r2,zero
   207c8:	00001a06 	br	20834 <OC_I2C_Write+0x1ec>
         }

         //wait TIP bit go to 0 to end Tx
          if(!ACK_check( i2c_base)){
   207cc:	e13ffc17 	ldw	r4,-16(fp)
   207d0:	00205e80 	call	205e8 <ACK_check>
   207d4:	1000051e 	bne	r2,zero,207ec <OC_I2C_Write+0x1a4>
              printf("OC_I2C_Write error[8]\r\n");
   207d8:	010000f4 	movhi	r4,3
   207dc:	211a4604 	addi	r4,r4,26904
   207e0:	0028c4c0 	call	28c4c <puts>
              return FALSE;
   207e4:	0005883a 	mov	r2,zero
   207e8:	00001206 	br	20834 <OC_I2C_Write+0x1ec>
        return FALSE;
    }
 //  printf("\n receive ACK-reg address! \n");

#if 1
        for( i=nWriteLength-1;i>=0;i--){
   207ec:	e0bffb17 	ldw	r2,-20(fp)
   207f0:	10bfffc4 	addi	r2,r2,-1
   207f4:	e0bffb15 	stw	r2,-20(fp)
   207f8:	e0bffb17 	ldw	r2,-20(fp)
   207fc:	103fda0e 	bge	r2,zero,20768 <_gp+0xfffdec40>
   //wait TIP bit go to 0 to end Tx
    if(!ACK_check( i2c_base))
        return false;
#endif

     if (!Write32_Data( i2c_base, 4,0x40)){
   20800:	01801004 	movi	r6,64
   20804:	01400104 	movi	r5,4
   20808:	e13ffc17 	ldw	r4,-16(fp)
   2080c:	00202940 	call	20294 <Write32_Data>
   20810:	1000051e 	bne	r2,zero,20828 <OC_I2C_Write+0x1e0>
         printf("OC_I2C_Write error[9]\r\n");
   20814:	010000f4 	movhi	r4,3
   20818:	211a4c04 	addi	r4,r4,26928
   2081c:	0028c4c0 	call	28c4c <puts>
         return FALSE;
   20820:	0005883a 	mov	r2,zero
   20824:	00000306 	br	20834 <OC_I2C_Write+0x1ec>
     }
         //Sleep(10);
     //OS_msleep(1);
     usleep(SLEEP_TIME);
   20828:	01003e84 	movi	r4,250
   2082c:	00343040 	call	34304 <usleep>

  // printf("\n receive ACK-data! \n");

     return TRUE;
   20830:	00800044 	movi	r2,1

}
   20834:	e037883a 	mov	sp,fp
   20838:	dfc00117 	ldw	ra,4(sp)
   2083c:	df000017 	ldw	fp,0(sp)
   20840:	dec00204 	addi	sp,sp,8
   20844:	f800283a 	ret

00020848 <ACK_judge_for_read>:


bool ACK_judge_for_read(alt_32 i2c_base)
{
   20848:	defffb04 	addi	sp,sp,-20
   2084c:	dfc00415 	stw	ra,16(sp)
   20850:	df000315 	stw	fp,12(sp)
   20854:	df000304 	addi	fp,sp,12
   20858:	e13fff15 	stw	r4,-4(fp)
	bool bSuccess;
    alt_32 this_data;

   // OS_msleep( SLEEP_TIME );
     usleep(ACK_SLEEP_TIME);
   2085c:	01003e84 	movi	r4,250
   20860:	00343040 	call	34304 <usleep>
    //   while(this_data & 0x02)
//   {
//      this_data =  Read32_Data ( hPCIe, i2c_base, 4);
//   }
    bSuccess =  Read32_Data ( i2c_base, 4, &this_data);
   20864:	e0bffe04 	addi	r2,fp,-8
   20868:	100d883a 	mov	r6,r2
   2086c:	01400104 	movi	r5,4
   20870:	e13fff17 	ldw	r4,-4(fp)
   20874:	00202ec0 	call	202ec <Read32_Data>
   20878:	e0bffd15 	stw	r2,-12(fp)
    if (bSuccess){
   2087c:	e0bffd17 	ldw	r2,-12(fp)
   20880:	10000426 	beq	r2,zero,20894 <ACK_judge_for_read+0x4c>
        if(this_data & 0x02)
   20884:	e0bffe17 	ldw	r2,-8(fp)
   20888:	1080008c 	andi	r2,r2,2
   2088c:	10000126 	beq	r2,zero,20894 <ACK_judge_for_read+0x4c>
            bSuccess = FALSE;
   20890:	e03ffd15 	stw	zero,-12(fp)
    }
   //wait the rx ACK signal 0-valid

    return bSuccess;
   20894:	e0bffd17 	ldw	r2,-12(fp)

}
   20898:	e037883a 	mov	sp,fp
   2089c:	dfc00117 	ldw	ra,4(sp)
   208a0:	df000017 	ldw	fp,0(sp)
   208a4:	dec00204 	addi	sp,sp,8
   208a8:	f800283a 	ret

000208ac <OC_I2C_Read>:

bool  OC_I2C_Read(alt_32 i2c_base,alt_u8 device_address,alt_u8 sub_address, alt_u8 *pData8, int nReadLength){
   208ac:	defff804 	addi	sp,sp,-32
   208b0:	dfc00715 	stw	ra,28(sp)
   208b4:	df000615 	stw	fp,24(sp)
   208b8:	df000604 	addi	fp,sp,24
   208bc:	e13ffc15 	stw	r4,-16(fp)
   208c0:	2807883a 	mov	r3,r5
   208c4:	3005883a 	mov	r2,r6
   208c8:	e1ffff15 	stw	r7,-4(fp)
   208cc:	e0fffd05 	stb	r3,-12(fp)
   208d0:	e0bffe05 	stb	r2,-8(fp)
    //BYTE data = 0x0;
    alt_32 Data32;
    int i;

   //set the tx reg audio chip dev address with write bit
   IOWR( i2c_base, 3,device_address);
   208d4:	e0bffc17 	ldw	r2,-16(fp)
   208d8:	10800304 	addi	r2,r2,12
   208dc:	1007883a 	mov	r3,r2
   208e0:	e0bffd03 	ldbu	r2,-12(fp)
   208e4:	18800035 	stwio	r2,0(r3)
   //set STA and WR bits(bit7 and bit4)
   IOWR( i2c_base, 4,0x90);
   208e8:	e0bffc17 	ldw	r2,-16(fp)
   208ec:	10800404 	addi	r2,r2,16
   208f0:	1007883a 	mov	r3,r2
   208f4:	00802404 	movi	r2,144
   208f8:	18800035 	stwio	r2,0(r3)
   //wait TIP bit go to 0 to end Tx
   if (!ACK_check( i2c_base)){
   208fc:	e13ffc17 	ldw	r4,-16(fp)
   20900:	00205e80 	call	205e8 <ACK_check>
   20904:	1000051e 	bne	r2,zero,2091c <OC_I2C_Read+0x70>
       printf("OC_I2C_Read error[2]\r\n");
   20908:	010000f4 	movhi	r4,3
   2090c:	211a5204 	addi	r4,r4,26952
   20910:	0028c4c0 	call	28c4c <puts>
       return FALSE;
   20914:	0005883a 	mov	r2,zero
   20918:	00005206 	br	20a64 <OC_I2C_Read+0x1b8>
   }
   IOWR(i2c_base, 3,sub_address);
   2091c:	e0bffc17 	ldw	r2,-16(fp)
   20920:	10800304 	addi	r2,r2,12
   20924:	1007883a 	mov	r3,r2
   20928:	e0bffe03 	ldbu	r2,-8(fp)
   2092c:	18800035 	stwio	r2,0(r3)

   //set WR bits(bit4)
   IOWR( i2c_base, 4,0x10);
   20930:	e0bffc17 	ldw	r2,-16(fp)
   20934:	10800404 	addi	r2,r2,16
   20938:	1007883a 	mov	r3,r2
   2093c:	00800404 	movi	r2,16
   20940:	18800035 	stwio	r2,0(r3)
   //wait TIP bit go to 0 to end Tx
    if (!ACK_check( i2c_base)){
   20944:	e13ffc17 	ldw	r4,-16(fp)
   20948:	00205e80 	call	205e8 <ACK_check>
   2094c:	1000051e 	bne	r2,zero,20964 <OC_I2C_Read+0xb8>
        printf("OC_I2C_Read error[5]\r\n");
   20950:	010000f4 	movhi	r4,3
   20954:	211a5804 	addi	r4,r4,26976
   20958:	0028c4c0 	call	28c4c <puts>
        return FALSE;
   2095c:	0005883a 	mov	r2,zero
   20960:	00004006 	br	20a64 <OC_I2C_Read+0x1b8>
  // printf("\n read receive ACK-reg address! \n");

   //read
    //set the tx reg audio chip dev address with read bit 1

    IOWR(i2c_base, 3,device_address|0x01);
   20964:	e0bffc17 	ldw	r2,-16(fp)
   20968:	10800304 	addi	r2,r2,12
   2096c:	1007883a 	mov	r3,r2
   20970:	e0bffd03 	ldbu	r2,-12(fp)
   20974:	10800054 	ori	r2,r2,1
   20978:	10803fcc 	andi	r2,r2,255
   2097c:	18800035 	stwio	r2,0(r3)

   //set STA and WR bits(bit7 and bit4)
    IOWR( i2c_base, 4,0x90);
   20980:	e0bffc17 	ldw	r2,-16(fp)
   20984:	10800404 	addi	r2,r2,16
   20988:	1007883a 	mov	r3,r2
   2098c:	00802404 	movi	r2,144
   20990:	18800035 	stwio	r2,0(r3)

   //wait TIP bit go to 0 to end Tx
    if (!ACK_check( i2c_base)){
   20994:	e13ffc17 	ldw	r4,-16(fp)
   20998:	00205e80 	call	205e8 <ACK_check>
   2099c:	1000051e 	bne	r2,zero,209b4 <OC_I2C_Read+0x108>
        printf("OC_I2C_Read error[8]\r\n");
   209a0:	010000f4 	movhi	r4,3
   209a4:	211a5e04 	addi	r4,r4,27000
   209a8:	0028c4c0 	call	28c4c <puts>
        return FALSE;
   209ac:	0005883a 	mov	r2,zero
   209b0:	00002c06 	br	20a64 <OC_I2C_Read+0x1b8>
    }

    for(i=0;i<nReadLength;i++){
   209b4:	e03ffa15 	stw	zero,-24(fp)
   209b8:	00001f06 	br	20a38 <OC_I2C_Read+0x18c>
  // printf("\n read receive ACK-device address(read)! \n");
   //set the RD and ACK bit(bit5 and bit3)
    	IOWR( i2c_base, 4,((i+1) == nReadLength)?0x28:0x20);
   209bc:	e0bffc17 	ldw	r2,-16(fp)
   209c0:	10800404 	addi	r2,r2,16
   209c4:	1009883a 	mov	r4,r2
   209c8:	e0bffa17 	ldw	r2,-24(fp)
   209cc:	10c00044 	addi	r3,r2,1
   209d0:	e0800217 	ldw	r2,8(fp)
   209d4:	1880021e 	bne	r3,r2,209e0 <OC_I2C_Read+0x134>
   209d8:	00800a04 	movi	r2,40
   209dc:	00000106 	br	209e4 <OC_I2C_Read+0x138>
   209e0:	00800804 	movi	r2,32
   209e4:	20800035 	stwio	r2,0(r4)

        if (!ACK_judge_for_read( i2c_base)){
   209e8:	e13ffc17 	ldw	r4,-16(fp)
   209ec:	00208480 	call	20848 <ACK_judge_for_read>
   209f0:	1000051e 	bne	r2,zero,20a08 <OC_I2C_Read+0x15c>
            printf("OC_I2C_Read error[10]\r\n");
   209f4:	010000f4 	movhi	r4,3
   209f8:	211a6404 	addi	r4,r4,27024
   209fc:	0028c4c0 	call	28c4c <puts>
            return FALSE;
   20a00:	0005883a 	mov	r2,zero
   20a04:	00001706 	br	20a64 <OC_I2C_Read+0x1b8>
        }
   // printf("\n read receive ACK-device address(read)! \n");

        Data32=IORD( i2c_base, 3);
   20a08:	e0bffc17 	ldw	r2,-16(fp)
   20a0c:	10800304 	addi	r2,r2,12
   20a10:	10800037 	ldwio	r2,0(r2)
   20a14:	e0bffb15 	stw	r2,-20(fp)
        *(pData8+i) =  Data32 & 0xff;
   20a18:	e0bffa17 	ldw	r2,-24(fp)
   20a1c:	e0ffff17 	ldw	r3,-4(fp)
   20a20:	1885883a 	add	r2,r3,r2
   20a24:	e0fffb17 	ldw	r3,-20(fp)
   20a28:	10c00005 	stb	r3,0(r2)
    if (!ACK_check( i2c_base)){
        printf("OC_I2C_Read error[8]\r\n");
        return FALSE;
    }

    for(i=0;i<nReadLength;i++){
   20a2c:	e0bffa17 	ldw	r2,-24(fp)
   20a30:	10800044 	addi	r2,r2,1
   20a34:	e0bffa15 	stw	r2,-24(fp)
   20a38:	e0fffa17 	ldw	r3,-24(fp)
   20a3c:	e0800217 	ldw	r2,8(fp)
   20a40:	18bfde16 	blt	r3,r2,209bc <_gp+0xfffdee94>

        Data32=IORD( i2c_base, 3);
        *(pData8+i) =  Data32 & 0xff;
    }

    IOWR( i2c_base, 4,0x40);
   20a44:	e0bffc17 	ldw	r2,-16(fp)
   20a48:	10800404 	addi	r2,r2,16
   20a4c:	1007883a 	mov	r3,r2
   20a50:	00801004 	movi	r2,64
   20a54:	18800035 	stwio	r2,0(r3)

  // Sleep(10);
   //OS_msleep(1);
    usleep(SLEEP_TIME);
   20a58:	01003e84 	movi	r4,250
   20a5c:	00343040 	call	34304 <usleep>
 //  printf(" Read  [%02X] = %02Xh\r\n", sub_address, data);


   return TRUE;
   20a60:	00800044 	movi	r2,1

}
   20a64:	e037883a 	mov	sp,fp
   20a68:	dfc00117 	ldw	ra,4(sp)
   20a6c:	df000017 	ldw	fp,0(sp)
   20a70:	dec00204 	addi	sp,sp,8
   20a74:	f800283a 	ret

00020a78 <OC_I2C_Read_Continue>:


bool  OC_I2C_Read_Continue(alt_32 i2c_base,alt_u8 device_address, alt_u8 *pData8, int nReadLength){
   20a78:	defff804 	addi	sp,sp,-32
   20a7c:	dfc00715 	stw	ra,28(sp)
   20a80:	df000615 	stw	fp,24(sp)
   20a84:	df000604 	addi	fp,sp,24
   20a88:	e13ffc15 	stw	r4,-16(fp)
   20a8c:	2805883a 	mov	r2,r5
   20a90:	e1bffe15 	stw	r6,-8(fp)
   20a94:	e1ffff15 	stw	r7,-4(fp)
   20a98:	e0bffd05 	stb	r2,-12(fp)
	int i;
	alt_u32 Data32;

    IOWR(i2c_base, 3,device_address|0x01);
   20a9c:	e0bffc17 	ldw	r2,-16(fp)
   20aa0:	10800304 	addi	r2,r2,12
   20aa4:	1007883a 	mov	r3,r2
   20aa8:	e0bffd03 	ldbu	r2,-12(fp)
   20aac:	10800054 	ori	r2,r2,1
   20ab0:	10803fcc 	andi	r2,r2,255
   20ab4:	18800035 	stwio	r2,0(r3)

   //set STA and WR bits(bit7 and bit4)
    IOWR( i2c_base, 4,0x90);
   20ab8:	e0bffc17 	ldw	r2,-16(fp)
   20abc:	10800404 	addi	r2,r2,16
   20ac0:	1007883a 	mov	r3,r2
   20ac4:	00802404 	movi	r2,144
   20ac8:	18800035 	stwio	r2,0(r3)
//usleep(5*1000);
   //wait TIP bit go to 0 to end Tx
    if (!ACK_check( i2c_base)){
   20acc:	e13ffc17 	ldw	r4,-16(fp)
   20ad0:	00205e80 	call	205e8 <ACK_check>
   20ad4:	1000051e 	bne	r2,zero,20aec <OC_I2C_Read_Continue+0x74>
        printf("OC_I2C_Read error[8]\r\n");
   20ad8:	010000f4 	movhi	r4,3
   20adc:	211a5e04 	addi	r4,r4,27000
   20ae0:	0028c4c0 	call	28c4c <puts>
        return FALSE;
   20ae4:	0005883a 	mov	r2,zero
   20ae8:	00002c06 	br	20b9c <OC_I2C_Read_Continue+0x124>
    }

    for(i=0;i<nReadLength;i++){
   20aec:	e03ffa15 	stw	zero,-24(fp)
   20af0:	00001f06 	br	20b70 <OC_I2C_Read_Continue+0xf8>
  // printf("\n read receive ACK-device address(read)! \n");
   //set the RD and ACK bit(bit5 and bit3)
    	IOWR( i2c_base, 4,((i+1) == nReadLength)?0x28:0x20);
   20af4:	e0bffc17 	ldw	r2,-16(fp)
   20af8:	10800404 	addi	r2,r2,16
   20afc:	1009883a 	mov	r4,r2
   20b00:	e0bffa17 	ldw	r2,-24(fp)
   20b04:	10c00044 	addi	r3,r2,1
   20b08:	e0bfff17 	ldw	r2,-4(fp)
   20b0c:	1880021e 	bne	r3,r2,20b18 <OC_I2C_Read_Continue+0xa0>
   20b10:	00800a04 	movi	r2,40
   20b14:	00000106 	br	20b1c <OC_I2C_Read_Continue+0xa4>
   20b18:	00800804 	movi	r2,32
   20b1c:	20800035 	stwio	r2,0(r4)

        if (!ACK_judge_for_read( i2c_base)){
   20b20:	e13ffc17 	ldw	r4,-16(fp)
   20b24:	00208480 	call	20848 <ACK_judge_for_read>
   20b28:	1000051e 	bne	r2,zero,20b40 <OC_I2C_Read_Continue+0xc8>
            printf("OC_I2C_Read error[10]\r\n");
   20b2c:	010000f4 	movhi	r4,3
   20b30:	211a6404 	addi	r4,r4,27024
   20b34:	0028c4c0 	call	28c4c <puts>
            return FALSE;
   20b38:	0005883a 	mov	r2,zero
   20b3c:	00001706 	br	20b9c <OC_I2C_Read_Continue+0x124>
        }
   // printf("\n read receive ACK-device address(read)! \n");

        Data32=IORD( i2c_base, 3);
   20b40:	e0bffc17 	ldw	r2,-16(fp)
   20b44:	10800304 	addi	r2,r2,12
   20b48:	10800037 	ldwio	r2,0(r2)
   20b4c:	e0bffb15 	stw	r2,-20(fp)
        *(pData8+i) =  Data32 & 0xff;
   20b50:	e0bffa17 	ldw	r2,-24(fp)
   20b54:	e0fffe17 	ldw	r3,-8(fp)
   20b58:	1885883a 	add	r2,r3,r2
   20b5c:	e0fffb17 	ldw	r3,-20(fp)
   20b60:	10c00005 	stb	r3,0(r2)
    if (!ACK_check( i2c_base)){
        printf("OC_I2C_Read error[8]\r\n");
        return FALSE;
    }

    for(i=0;i<nReadLength;i++){
   20b64:	e0bffa17 	ldw	r2,-24(fp)
   20b68:	10800044 	addi	r2,r2,1
   20b6c:	e0bffa15 	stw	r2,-24(fp)
   20b70:	e0fffa17 	ldw	r3,-24(fp)
   20b74:	e0bfff17 	ldw	r2,-4(fp)
   20b78:	18bfde16 	blt	r3,r2,20af4 <_gp+0xfffdefcc>

        Data32=IORD( i2c_base, 3);
        *(pData8+i) =  Data32 & 0xff;
    }

    IOWR( i2c_base, 4,0x40);
   20b7c:	e0bffc17 	ldw	r2,-16(fp)
   20b80:	10800404 	addi	r2,r2,16
   20b84:	1007883a 	mov	r3,r2
   20b88:	00801004 	movi	r2,64
   20b8c:	18800035 	stwio	r2,0(r3)

  // Sleep(10);
   //OS_msleep(1);
    usleep(SLEEP_TIME);
   20b90:	01003e84 	movi	r4,250
   20b94:	00343040 	call	34304 <usleep>
 //  printf(" Read  [%02X] = %02Xh\r\n", sub_address, data);


   return TRUE;
   20b98:	00800044 	movi	r2,1

}
   20b9c:	e037883a 	mov	sp,fp
   20ba0:	dfc00117 	ldw	ra,4(sp)
   20ba4:	df000017 	ldw	fp,0(sp)
   20ba8:	dec00204 	addi	sp,sp,8
   20bac:	f800283a 	ret

00020bb0 <OC_I2CL_Write>:


//  size > 2Kb
bool  OC_I2CL_Write(alt_32 i2c_base,alt_u8 device_address,alt_u16 sub_address,alt_u8 *pData, int nWriteLength)
    {
   20bb0:	defff804 	addi	sp,sp,-32
   20bb4:	dfc00715 	stw	ra,28(sp)
   20bb8:	df000615 	stw	fp,24(sp)
   20bbc:	df000604 	addi	fp,sp,24
   20bc0:	e13ffc15 	stw	r4,-16(fp)
   20bc4:	2807883a 	mov	r3,r5
   20bc8:	3005883a 	mov	r2,r6
   20bcc:	e1ffff15 	stw	r7,-4(fp)
   20bd0:	e0fffd05 	stb	r3,-12(fp)
   20bd4:	e0bffe0d 	sth	r2,-8(fp)
    //DWORD reg_data = 0x0;
	alt_u8 AddrHigh, AddrLow;
    //int count= 0;

    AddrHigh = (sub_address >> 8) & 0xFF;
   20bd8:	e0bffe0b 	ldhu	r2,-8(fp)
   20bdc:	1004d23a 	srli	r2,r2,8
   20be0:	e0bffb05 	stb	r2,-20(fp)
    AddrLow  = sub_address & 0xFF;
   20be4:	e0bffe0b 	ldhu	r2,-8(fp)
   20be8:	e0bffb45 	stb	r2,-19(fp)

    int i;

    //set the tx reg audio chip dev address with write bit
   if (!Write32_Data( i2c_base, 3,device_address))
   20bec:	e0bffd03 	ldbu	r2,-12(fp)
   20bf0:	100d883a 	mov	r6,r2
   20bf4:	014000c4 	movi	r5,3
   20bf8:	e13ffc17 	ldw	r4,-16(fp)
   20bfc:	00202940 	call	20294 <Write32_Data>
   20c00:	1000021e 	bne	r2,zero,20c0c <OC_I2CL_Write+0x5c>
       return FALSE;
   20c04:	0005883a 	mov	r2,zero
   20c08:	00006806 	br	20dac <OC_I2CL_Write+0x1fc>
   //set STA and WR bits(bit7 and bit4)
   if (!Write32_Data( i2c_base, 4,0x90))//0x90
   20c0c:	01802404 	movi	r6,144
   20c10:	01400104 	movi	r5,4
   20c14:	e13ffc17 	ldw	r4,-16(fp)
   20c18:	00202940 	call	20294 <Write32_Data>
   20c1c:	1000021e 	bne	r2,zero,20c28 <OC_I2CL_Write+0x78>
       return FALSE;
   20c20:	0005883a 	mov	r2,zero
   20c24:	00006106 	br	20dac <OC_I2CL_Write+0x1fc>

   //wait TIP bit go to 0 to end Tx
    if(!ACK_check( i2c_base)){
   20c28:	e13ffc17 	ldw	r4,-16(fp)
   20c2c:	00205e80 	call	205e8 <ACK_check>
   20c30:	1000051e 	bne	r2,zero,20c48 <OC_I2CL_Write+0x98>
        printf("OC_I2CL_Write error[0]\r\n");
   20c34:	010000f4 	movhi	r4,3
   20c38:	211a6a04 	addi	r4,r4,27048
   20c3c:	0028c4c0 	call	28c4c <puts>
        return FALSE;
   20c40:	0005883a 	mov	r2,zero
   20c44:	00005906 	br	20dac <OC_I2CL_Write+0x1fc>
  // printf("\n receive ACK-device address! \n");

   //set the txr reg data with reg address + 1 data MSB
 //  reg_data  = (sub_address << 1) & 0xFE;
   //reg_data |= ((data >> 8) & 0x01);
   if (!Write32_Data( i2c_base, 3,AddrHigh))//reg_data&0xff);
   20c48:	e0bffb03 	ldbu	r2,-20(fp)
   20c4c:	100d883a 	mov	r6,r2
   20c50:	014000c4 	movi	r5,3
   20c54:	e13ffc17 	ldw	r4,-16(fp)
   20c58:	00202940 	call	20294 <Write32_Data>
   20c5c:	1000021e 	bne	r2,zero,20c68 <OC_I2CL_Write+0xb8>
       return FALSE;
   20c60:	0005883a 	mov	r2,zero
   20c64:	00005106 	br	20dac <OC_I2CL_Write+0x1fc>

   //set WR bits(bit4)
    if (!Write32_Data( i2c_base, 4,0x10))
   20c68:	01800404 	movi	r6,16
   20c6c:	01400104 	movi	r5,4
   20c70:	e13ffc17 	ldw	r4,-16(fp)
   20c74:	00202940 	call	20294 <Write32_Data>
   20c78:	1000021e 	bne	r2,zero,20c84 <OC_I2CL_Write+0xd4>
        return FALSE;
   20c7c:	0005883a 	mov	r2,zero
   20c80:	00004a06 	br	20dac <OC_I2CL_Write+0x1fc>

   //wait TIP bit go to 0 to end Tx
    if(!ACK_check( i2c_base)){
   20c84:	e13ffc17 	ldw	r4,-16(fp)
   20c88:	00205e80 	call	205e8 <ACK_check>
   20c8c:	1000051e 	bne	r2,zero,20ca4 <OC_I2CL_Write+0xf4>
        printf("OC_I2CL_Write error[1]\r\n");
   20c90:	010000f4 	movhi	r4,3
   20c94:	211a7004 	addi	r4,r4,27072
   20c98:	0028c4c0 	call	28c4c <puts>
        return FALSE;
   20c9c:	0005883a 	mov	r2,zero
   20ca0:	00004206 	br	20dac <OC_I2CL_Write+0x1fc>
    }
  // printf("\n receive ACK-reg high address! \n");

   //set the txr reg data with reg address + 1 data MSB
   if (!Write32_Data( i2c_base, 3,AddrLow))//reg_data&0xff);
   20ca4:	e0bffb43 	ldbu	r2,-19(fp)
   20ca8:	100d883a 	mov	r6,r2
   20cac:	014000c4 	movi	r5,3
   20cb0:	e13ffc17 	ldw	r4,-16(fp)
   20cb4:	00202940 	call	20294 <Write32_Data>
   20cb8:	1000021e 	bne	r2,zero,20cc4 <OC_I2CL_Write+0x114>
       return FALSE;
   20cbc:	0005883a 	mov	r2,zero
   20cc0:	00003a06 	br	20dac <OC_I2CL_Write+0x1fc>

   //set WR bits(bit4)
    Write32_Data( i2c_base, 4,0x10);
   20cc4:	01800404 	movi	r6,16
   20cc8:	01400104 	movi	r5,4
   20ccc:	e13ffc17 	ldw	r4,-16(fp)
   20cd0:	00202940 	call	20294 <Write32_Data>

   //wait TIP bit go to 0 to end Tx
    if(!ACK_check( i2c_base)){
   20cd4:	e13ffc17 	ldw	r4,-16(fp)
   20cd8:	00205e80 	call	205e8 <ACK_check>
   20cdc:	1000051e 	bne	r2,zero,20cf4 <OC_I2CL_Write+0x144>
        printf("OC_I2CL_Write error[2]\r\n");
   20ce0:	010000f4 	movhi	r4,3
   20ce4:	211a7604 	addi	r4,r4,27096
   20ce8:	0028c4c0 	call	28c4c <puts>
        return FALSE;
   20cec:	0005883a 	mov	r2,zero
   20cf0:	00002e06 	br	20dac <OC_I2CL_Write+0x1fc>
    }
  //  printf("\n receive ACK-reg low address! \n");

#if 1
    for( i=nWriteLength-1;i>=0;i--){
   20cf4:	e0800217 	ldw	r2,8(fp)
   20cf8:	10bfffc4 	addi	r2,r2,-1
   20cfc:	e0bffa15 	stw	r2,-24(fp)
   20d00:	00001e06 	br	20d7c <OC_I2CL_Write+0x1cc>
        //set the txr reg data with the other data 8 bit LSB
        if (!Write32_Data( i2c_base, 3,*(pData+i)))
   20d04:	e0bffa17 	ldw	r2,-24(fp)
   20d08:	e0ffff17 	ldw	r3,-4(fp)
   20d0c:	1885883a 	add	r2,r3,r2
   20d10:	10800003 	ldbu	r2,0(r2)
   20d14:	10803fcc 	andi	r2,r2,255
   20d18:	100d883a 	mov	r6,r2
   20d1c:	014000c4 	movi	r5,3
   20d20:	e13ffc17 	ldw	r4,-16(fp)
   20d24:	00202940 	call	20294 <Write32_Data>
   20d28:	1000021e 	bne	r2,zero,20d34 <OC_I2CL_Write+0x184>
            return FALSE;
   20d2c:	0005883a 	mov	r2,zero
   20d30:	00001e06 	br	20dac <OC_I2CL_Write+0x1fc>

       //set STO and WR bits(bit7 and bit4)
        if (!Write32_Data( i2c_base, 4,0x10))
   20d34:	01800404 	movi	r6,16
   20d38:	01400104 	movi	r5,4
   20d3c:	e13ffc17 	ldw	r4,-16(fp)
   20d40:	00202940 	call	20294 <Write32_Data>
   20d44:	1000021e 	bne	r2,zero,20d50 <OC_I2CL_Write+0x1a0>
            return FALSE;
   20d48:	0005883a 	mov	r2,zero
   20d4c:	00001706 	br	20dac <OC_I2CL_Write+0x1fc>

        //wait TIP bit go to 0 to end Tx
         if(!ACK_check( i2c_base)){
   20d50:	e13ffc17 	ldw	r4,-16(fp)
   20d54:	00205e80 	call	205e8 <ACK_check>
   20d58:	1000051e 	bne	r2,zero,20d70 <OC_I2CL_Write+0x1c0>
             printf("OC_I2CL_Write error[3]\r\n");
   20d5c:	010000f4 	movhi	r4,3
   20d60:	211a7c04 	addi	r4,r4,27120
   20d64:	0028c4c0 	call	28c4c <puts>
             return FALSE;
   20d68:	0005883a 	mov	r2,zero
   20d6c:	00000f06 	br	20dac <OC_I2CL_Write+0x1fc>
        return FALSE;
    }
  //  printf("\n receive ACK-reg low address! \n");

#if 1
    for( i=nWriteLength-1;i>=0;i--){
   20d70:	e0bffa17 	ldw	r2,-24(fp)
   20d74:	10bfffc4 	addi	r2,r2,-1
   20d78:	e0bffa15 	stw	r2,-24(fp)
   20d7c:	e0bffa17 	ldw	r2,-24(fp)
   20d80:	103fe00e 	bge	r2,zero,20d04 <_gp+0xfffdf1dc>
   //wait TIP bit go to 0 to end Tx
    if(!ACK_check( i2c_base))
        return FALSE;

#endif
    if (!Write32_Data( i2c_base, 4,0x40))
   20d84:	01801004 	movi	r6,64
   20d88:	01400104 	movi	r5,4
   20d8c:	e13ffc17 	ldw	r4,-16(fp)
   20d90:	00202940 	call	20294 <Write32_Data>
   20d94:	1000021e 	bne	r2,zero,20da0 <OC_I2CL_Write+0x1f0>
         return FALSE;
   20d98:	0005883a 	mov	r2,zero
   20d9c:	00000306 	br	20dac <OC_I2CL_Write+0x1fc>

     //OS_msleep(1);
      usleep(SLEEP_TIME);
   20da0:	01003e84 	movi	r4,250
   20da4:	00343040 	call	34304 <usleep>
  //  printf("\n receive ACK-data! \n");

     return TRUE;
   20da8:	00800044 	movi	r2,1
}
   20dac:	e037883a 	mov	sp,fp
   20db0:	dfc00117 	ldw	ra,4(sp)
   20db4:	df000017 	ldw	fp,0(sp)
   20db8:	dec00204 	addi	sp,sp,8
   20dbc:	f800283a 	ret

00020dc0 <OC_I2CL_Read>:

   return TRUE;

} */

bool  OC_I2CL_Read(alt_32 i2c_base,alt_u8 device_address, alt_u16 sub_address, alt_u8 *pData8, int nReadLength){
   20dc0:	defff704 	addi	sp,sp,-36
   20dc4:	dfc00815 	stw	ra,32(sp)
   20dc8:	df000715 	stw	fp,28(sp)
   20dcc:	df000704 	addi	fp,sp,28
   20dd0:	e13ffc15 	stw	r4,-16(fp)
   20dd4:	2807883a 	mov	r3,r5
   20dd8:	3005883a 	mov	r2,r6
   20ddc:	e1ffff15 	stw	r7,-4(fp)
   20de0:	e0fffd05 	stb	r3,-12(fp)
   20de4:	e0bffe0d 	sth	r2,-8(fp)
    int i;

    alt_u8 AddrHigh, AddrLow;
    alt_u8 DataHigh, DataLow;

    AddrHigh = (sub_address >> 8) & 0xFF;
   20de8:	e0bffe0b 	ldhu	r2,-8(fp)
   20dec:	1004d23a 	srli	r2,r2,8
   20df0:	e0bffa05 	stb	r2,-24(fp)
    AddrLow  = sub_address & 0xFF;
   20df4:	e0bffe0b 	ldhu	r2,-8(fp)
   20df8:	e0bffa45 	stb	r2,-23(fp)


   //set the tx reg audio chip dev address with write bit
   if (!Write32_Data( i2c_base, 3,device_address))
   20dfc:	e0bffd03 	ldbu	r2,-12(fp)
   20e00:	100d883a 	mov	r6,r2
   20e04:	014000c4 	movi	r5,3
   20e08:	e13ffc17 	ldw	r4,-16(fp)
   20e0c:	00202940 	call	20294 <Write32_Data>
   20e10:	1000021e 	bne	r2,zero,20e1c <OC_I2CL_Read+0x5c>
       return FALSE;
   20e14:	0005883a 	mov	r2,zero
   20e18:	00008406 	br	2102c <OC_I2CL_Read+0x26c>

   //set STA and WR bits(bit7 and bit4)
   if (!Write32_Data( i2c_base, 4,0x90))
   20e1c:	01802404 	movi	r6,144
   20e20:	01400104 	movi	r5,4
   20e24:	e13ffc17 	ldw	r4,-16(fp)
   20e28:	00202940 	call	20294 <Write32_Data>
   20e2c:	1000021e 	bne	r2,zero,20e38 <OC_I2CL_Read+0x78>
       return FALSE;
   20e30:	0005883a 	mov	r2,zero
   20e34:	00007d06 	br	2102c <OC_I2CL_Read+0x26c>

   //wait TIP bit go to 0 to end Tx
    if(!ACK_check( i2c_base)){
   20e38:	e13ffc17 	ldw	r4,-16(fp)
   20e3c:	00205e80 	call	205e8 <ACK_check>
   20e40:	1000051e 	bne	r2,zero,20e58 <OC_I2CL_Read+0x98>
        printf("OC_I2CL_Read error[0]\r\n");
   20e44:	010000f4 	movhi	r4,3
   20e48:	211a8204 	addi	r4,r4,27144
   20e4c:	0028c4c0 	call	28c4c <puts>
        return FALSE;
   20e50:	0005883a 	mov	r2,zero
   20e54:	00007506 	br	2102c <OC_I2CL_Read+0x26c>
 //  printf("\n receive ACK-device address! \n");


   //set the txr reg data with reg address + 0

   if (!Write32_Data( i2c_base, 3,AddrHigh))//reg_data&0xff);
   20e58:	e0bffa03 	ldbu	r2,-24(fp)
   20e5c:	100d883a 	mov	r6,r2
   20e60:	014000c4 	movi	r5,3
   20e64:	e13ffc17 	ldw	r4,-16(fp)
   20e68:	00202940 	call	20294 <Write32_Data>
   20e6c:	1000021e 	bne	r2,zero,20e78 <OC_I2CL_Read+0xb8>
       return FALSE;
   20e70:	0005883a 	mov	r2,zero
   20e74:	00006d06 	br	2102c <OC_I2CL_Read+0x26c>

   //set WR bits(bit4)
    if (!Write32_Data( i2c_base, 4,0x10))
   20e78:	01800404 	movi	r6,16
   20e7c:	01400104 	movi	r5,4
   20e80:	e13ffc17 	ldw	r4,-16(fp)
   20e84:	00202940 	call	20294 <Write32_Data>
   20e88:	1000021e 	bne	r2,zero,20e94 <OC_I2CL_Read+0xd4>
        return FALSE;
   20e8c:	0005883a 	mov	r2,zero
   20e90:	00006606 	br	2102c <OC_I2CL_Read+0x26c>

   //wait TIP bit go to 0 to end Tx
    if(!ACK_check( i2c_base)){
   20e94:	e13ffc17 	ldw	r4,-16(fp)
   20e98:	00205e80 	call	205e8 <ACK_check>
   20e9c:	1000051e 	bne	r2,zero,20eb4 <OC_I2CL_Read+0xf4>
        printf("OC_I2CL_Read error[1]\r\n");
   20ea0:	010000f4 	movhi	r4,3
   20ea4:	211a8804 	addi	r4,r4,27168
   20ea8:	0028c4c0 	call	28c4c <puts>
        return FALSE;
   20eac:	0005883a 	mov	r2,zero
   20eb0:	00005e06 	br	2102c <OC_I2CL_Read+0x26c>
    }
//   printf("\n read receive ACK-reg High address! \n");

     //set the txr reg data with reg address + 0
   if (!Write32_Data( i2c_base, 3,AddrLow)) //;//reg_data&0xff);
   20eb4:	e0bffa43 	ldbu	r2,-23(fp)
   20eb8:	100d883a 	mov	r6,r2
   20ebc:	014000c4 	movi	r5,3
   20ec0:	e13ffc17 	ldw	r4,-16(fp)
   20ec4:	00202940 	call	20294 <Write32_Data>
   20ec8:	1000021e 	bne	r2,zero,20ed4 <OC_I2CL_Read+0x114>
       return FALSE;
   20ecc:	0005883a 	mov	r2,zero
   20ed0:	00005606 	br	2102c <OC_I2CL_Read+0x26c>
   //set WR bits(bit4)
    if (!Write32_Data( i2c_base, 4,0x10))
   20ed4:	01800404 	movi	r6,16
   20ed8:	01400104 	movi	r5,4
   20edc:	e13ffc17 	ldw	r4,-16(fp)
   20ee0:	00202940 	call	20294 <Write32_Data>
   20ee4:	1000021e 	bne	r2,zero,20ef0 <OC_I2CL_Read+0x130>
        return FALSE;
   20ee8:	0005883a 	mov	r2,zero
   20eec:	00004f06 	br	2102c <OC_I2CL_Read+0x26c>

   //wait TIP bit go to 0 to end Tx
    if(!ACK_check( i2c_base)){
   20ef0:	e13ffc17 	ldw	r4,-16(fp)
   20ef4:	00205e80 	call	205e8 <ACK_check>
   20ef8:	1000051e 	bne	r2,zero,20f10 <OC_I2CL_Read+0x150>
        printf("OC_I2CL_Read error[2]\r\n");
   20efc:	010000f4 	movhi	r4,3
   20f00:	211a8e04 	addi	r4,r4,27192
   20f04:	0028c4c0 	call	28c4c <puts>
        return FALSE;
   20f08:	0005883a 	mov	r2,zero
   20f0c:	00004706 	br	2102c <OC_I2CL_Read+0x26c>

 //  printf("\n read receive ACK-reg Low address! \n");

   //read
    //set the tx reg audio chip dev address with read bit 1
     if (!Write32_Data( i2c_base, 3,device_address|0x01))
   20f10:	e0bffd03 	ldbu	r2,-12(fp)
   20f14:	10800054 	ori	r2,r2,1
   20f18:	10803fcc 	andi	r2,r2,255
   20f1c:	100d883a 	mov	r6,r2
   20f20:	014000c4 	movi	r5,3
   20f24:	e13ffc17 	ldw	r4,-16(fp)
   20f28:	00202940 	call	20294 <Write32_Data>
   20f2c:	1000021e 	bne	r2,zero,20f38 <OC_I2CL_Read+0x178>
         return FALSE;
   20f30:	0005883a 	mov	r2,zero
   20f34:	00003d06 	br	2102c <OC_I2CL_Read+0x26c>

   //set STA and WR bits(bit7 and bit4)
     if (!Write32_Data( i2c_base, 4,0x90))
   20f38:	01802404 	movi	r6,144
   20f3c:	01400104 	movi	r5,4
   20f40:	e13ffc17 	ldw	r4,-16(fp)
   20f44:	00202940 	call	20294 <Write32_Data>
   20f48:	1000021e 	bne	r2,zero,20f54 <OC_I2CL_Read+0x194>
         return FALSE;
   20f4c:	0005883a 	mov	r2,zero
   20f50:	00003606 	br	2102c <OC_I2CL_Read+0x26c>

   //wait TIP bit go to 0 to end Tx
    if(!ACK_check( i2c_base)){
   20f54:	e13ffc17 	ldw	r4,-16(fp)
   20f58:	00205e80 	call	205e8 <ACK_check>
   20f5c:	1000051e 	bne	r2,zero,20f74 <OC_I2CL_Read+0x1b4>
        printf("OC_I2CL_Read error[3]\r\n");
   20f60:	010000f4 	movhi	r4,3
   20f64:	211a9404 	addi	r4,r4,27216
   20f68:	0028c4c0 	call	28c4c <puts>
        return FALSE;
   20f6c:	0005883a 	mov	r2,zero
   20f70:	00002e06 	br	2102c <OC_I2CL_Read+0x26c>
//   printf("\n read receive ACK-device address(read)! \n");

       //read the rxr data

#if 1
    for(i=0;i<nReadLength;i++){
   20f74:	e03ff915 	stw	zero,-28(fp)
   20f78:	00001f06 	br	20ff8 <OC_I2CL_Read+0x238>
  // printf("\n read receive ACK-device address(read)! \n");
   //set the RD and ACK bit(bit5 and bit3)
    	IOWR( i2c_base, 4,((i+1) == nReadLength)?0x28:0x20);
   20f7c:	e0bffc17 	ldw	r2,-16(fp)
   20f80:	10800404 	addi	r2,r2,16
   20f84:	1009883a 	mov	r4,r2
   20f88:	e0bff917 	ldw	r2,-28(fp)
   20f8c:	10c00044 	addi	r3,r2,1
   20f90:	e0800217 	ldw	r2,8(fp)
   20f94:	1880021e 	bne	r3,r2,20fa0 <OC_I2CL_Read+0x1e0>
   20f98:	00800a04 	movi	r2,40
   20f9c:	00000106 	br	20fa4 <OC_I2CL_Read+0x1e4>
   20fa0:	00800804 	movi	r2,32
   20fa4:	20800035 	stwio	r2,0(r4)

        if (!ACK_judge_for_read( i2c_base)){
   20fa8:	e13ffc17 	ldw	r4,-16(fp)
   20fac:	00208480 	call	20848 <ACK_judge_for_read>
   20fb0:	1000051e 	bne	r2,zero,20fc8 <OC_I2CL_Read+0x208>
            printf("OC_I2CL_Read error[4]\r\n");
   20fb4:	010000f4 	movhi	r4,3
   20fb8:	211a9a04 	addi	r4,r4,27240
   20fbc:	0028c4c0 	call	28c4c <puts>
            return FALSE;
   20fc0:	0005883a 	mov	r2,zero
   20fc4:	00001906 	br	2102c <OC_I2CL_Read+0x26c>
        }
   // printf("\n read receive ACK-device address(read)! \n");

        Data32=IORD( i2c_base, 3);
   20fc8:	e0bffc17 	ldw	r2,-16(fp)
   20fcc:	10800304 	addi	r2,r2,12
   20fd0:	10800037 	ldwio	r2,0(r2)
   20fd4:	e0bffb15 	stw	r2,-20(fp)
        *(pData8+i) =  Data32 & 0xff;
   20fd8:	e0bff917 	ldw	r2,-28(fp)
   20fdc:	e0ffff17 	ldw	r3,-4(fp)
   20fe0:	1885883a 	add	r2,r3,r2
   20fe4:	e0fffb17 	ldw	r3,-20(fp)
   20fe8:	10c00005 	stb	r3,0(r2)
//   printf("\n read receive ACK-device address(read)! \n");

       //read the rxr data

#if 1
    for(i=0;i<nReadLength;i++){
   20fec:	e0bff917 	ldw	r2,-28(fp)
   20ff0:	10800044 	addi	r2,r2,1
   20ff4:	e0bff915 	stw	r2,-28(fp)
   20ff8:	e0fff917 	ldw	r3,-28(fp)
   20ffc:	e0800217 	ldw	r2,8(fp)
   21000:	18bfde16 	blt	r3,r2,20f7c <_gp+0xfffdf454>
    DataLow =  Data32 & 0xff;

    pData16 = (DataHigh << 8) | DataLow;
#endif

   if (!Write32_Data( i2c_base, 4,0x40))
   21004:	01801004 	movi	r6,64
   21008:	01400104 	movi	r5,4
   2100c:	e13ffc17 	ldw	r4,-16(fp)
   21010:	00202940 	call	20294 <Write32_Data>
   21014:	1000021e 	bne	r2,zero,21020 <OC_I2CL_Read+0x260>
       return FALSE;
   21018:	0005883a 	mov	r2,zero
   2101c:	00000306 	br	2102c <OC_I2CL_Read+0x26c>

   //OS_msleep(1);
    usleep(SLEEP_TIME);
   21020:	01003e84 	movi	r4,250
   21024:	00343040 	call	34304 <usleep>

   return TRUE;
   21028:	00800044 	movi	r2,1

}
   2102c:	e037883a 	mov	sp,fp
   21030:	dfc00117 	ldw	ra,4(sp)
   21034:	df000017 	ldw	fp,0(sp)
   21038:	dec00204 	addi	sp,sp,8
   2103c:	f800283a 	ret

00021040 <Focus_Init>:
// please observe focus performance when change the scal ,scal_f. or when change camera frame rate
alt_u8  focus_scal   =   4;  // scan 0 -> 1023 , step: SCAL , to find STEP_UP
alt_u8  focus_scal_f =   1;  //  scan STEP_UP + - SCAL/2 , step: SCAL_F
alt_u8  focus_th     =   20;

void Focus_Init(void){
   21040:	defffe04 	addi	sp,sp,-8
   21044:	dfc00115 	stw	ra,4(sp)
   21048:	df000015 	stw	fp,0(sp)
   2104c:	d839883a 	mov	fp,sp
  // please look at TERASIC_AUTO_FOCUS IP to see register's detail.
  IOWR(TERASIC_AUTO_FOCUS_0_BASE,REG_CTRL, 0);// focus mode : 1: window-screen, 0: full-screen
   21050:	0007883a 	mov	r3,zero
   21054:	00800134 	movhi	r2,4
   21058:	10841904 	addi	r2,r2,4196
   2105c:	10c00035 	stwio	r3,0(r2)
  IOWR(TERASIC_AUTO_FOCUS_0_BASE,REG_FOCUS_W, focus_width);// focus_width
   21060:	d0a0010b 	ldhu	r2,-32764(gp)
   21064:	10ffffcc 	andi	r3,r2,65535
   21068:	00800134 	movhi	r2,4
   2106c:	10841a04 	addi	r2,r2,4200
   21070:	10c00035 	stwio	r3,0(r2)
  IOWR(TERASIC_AUTO_FOCUS_0_BASE,REG_FOCUS_H, focus_height);// focus_height
   21074:	d0a0018b 	ldhu	r2,-32762(gp)
   21078:	10ffffcc 	andi	r3,r2,65535
   2107c:	00800134 	movhi	r2,4
   21080:	10841b04 	addi	r2,r2,4204
   21084:	10c00035 	stwio	r3,0(r2)
  IOWR(TERASIC_AUTO_FOCUS_0_BASE,REG_FOCUS_X_START, video_w/2-focus_width/2);//x_start
   21088:	d0a0000b 	ldhu	r2,-32768(gp)
   2108c:	10bfffcc 	andi	r2,r2,65535
   21090:	1004d07a 	srli	r2,r2,1
   21094:	10ffffcc 	andi	r3,r2,65535
   21098:	d0a0010b 	ldhu	r2,-32764(gp)
   2109c:	10bfffcc 	andi	r2,r2,65535
   210a0:	1004d07a 	srli	r2,r2,1
   210a4:	10bfffcc 	andi	r2,r2,65535
   210a8:	1887c83a 	sub	r3,r3,r2
   210ac:	00800134 	movhi	r2,4
   210b0:	10841c04 	addi	r2,r2,4208
   210b4:	10c00035 	stwio	r3,0(r2)
  IOWR(TERASIC_AUTO_FOCUS_0_BASE,REG_FOCUS_Y_START, video_h/2-focus_height/2);// y_start
   210b8:	d0a0008b 	ldhu	r2,-32766(gp)
   210bc:	10bfffcc 	andi	r2,r2,65535
   210c0:	1004d07a 	srli	r2,r2,1
   210c4:	10ffffcc 	andi	r3,r2,65535
   210c8:	d0a0018b 	ldhu	r2,-32762(gp)
   210cc:	10bfffcc 	andi	r2,r2,65535
   210d0:	1004d07a 	srli	r2,r2,1
   210d4:	10bfffcc 	andi	r2,r2,65535
   210d8:	1887c83a 	sub	r3,r3,r2
   210dc:	00800134 	movhi	r2,4
   210e0:	10841d04 	addi	r2,r2,4212
   210e4:	10c00035 	stwio	r3,0(r2)

  IOWR(TERASIC_AUTO_FOCUS_0_BASE,REG_SCAL, focus_scal*256 + focus_scal_f); // scan 0 -> 1023 , step: SCAL , to find STEP_UP
   210e8:	d0a00203 	ldbu	r2,-32760(gp)
   210ec:	10803fcc 	andi	r2,r2,255
   210f0:	1006923a 	slli	r3,r2,8
   210f4:	d0a00243 	ldbu	r2,-32759(gp)
   210f8:	10803fcc 	andi	r2,r2,255
   210fc:	1887883a 	add	r3,r3,r2
   21100:	00800134 	movhi	r2,4
   21104:	10841e04 	addi	r2,r2,4216
   21108:	10c00035 	stwio	r3,0(r2)
                                                                          //  scan STEP_UP + - SCAL/2 , step: SCAL_F
  IOWR(TERASIC_AUTO_FOCUS_0_BASE,REG_TH, focus_th);
   2110c:	d0a00283 	ldbu	r2,-32758(gp)
   21110:	10c03fcc 	andi	r3,r2,255
   21114:	00800134 	movhi	r2,4
   21118:	10841f04 	addi	r2,r2,4220
   2111c:	10c00035 	stwio	r3,0(r2)

  //////////// focus at initial time
  usleep(100);
   21120:	01001904 	movi	r4,100
   21124:	00343040 	call	34304 <usleep>
  IOWR(TERASIC_AUTO_FOCUS_0_BASE,REG_GO, 1);
   21128:	00c00044 	movi	r3,1
   2112c:	00800134 	movhi	r2,4
   21130:	10841804 	addi	r2,r2,4192
   21134:	10c00035 	stwio	r3,0(r2)
  usleep(2);
   21138:	01000084 	movi	r4,2
   2113c:	00343040 	call	34304 <usleep>
  IOWR(TERASIC_AUTO_FOCUS_0_BASE,REG_GO, 0);
   21140:	0007883a 	mov	r3,zero
   21144:	00800134 	movhi	r2,4
   21148:	10841804 	addi	r2,r2,4192
   2114c:	10c00035 	stwio	r3,0(r2)
}
   21150:	0001883a 	nop
   21154:	e037883a 	mov	sp,fp
   21158:	dfc00117 	ldw	ra,4(sp)
   2115c:	df000017 	ldw	fp,0(sp)
   21160:	dec00204 	addi	sp,sp,8
   21164:	f800283a 	ret

00021168 <Focus_Window>:

alt_u16 Focus_Window(int x,int y){
   21168:	defffa04 	addi	sp,sp,-24
   2116c:	dfc00515 	stw	ra,20(sp)
   21170:	df000415 	stw	fp,16(sp)
   21174:	df000404 	addi	fp,sp,16
   21178:	e13ffe15 	stw	r4,-8(fp)
   2117c:	e17fff15 	stw	r5,-4(fp)
   alt_u16 x_start,y_start;
   alt_u16 end_focus;

   if(Focus_Released()) { // pre focus done
   21180:	00213480 	call	21348 <Focus_Released>
   21184:	10006a26 	beq	r2,zero,21330 <Focus_Window+0x1c8>
	   IOWR(TERASIC_AUTO_FOCUS_0_BASE,REG_CTRL, 1);// focus mode : 1: window-screen, 0: full-screen
   21188:	00c00044 	movi	r3,1
   2118c:	00800134 	movhi	r2,4
   21190:	10841904 	addi	r2,r2,4196
   21194:	10c00035 	stwio	r3,0(r2)

	   if(( x -  focus_width/2) < 0 ) x_start = 0;
   21198:	d0a0010b 	ldhu	r2,-32764(gp)
   2119c:	10bfffcc 	andi	r2,r2,65535
   211a0:	1004d07a 	srli	r2,r2,1
   211a4:	10bfffcc 	andi	r2,r2,65535
   211a8:	e0fffe17 	ldw	r3,-8(fp)
   211ac:	1885c83a 	sub	r2,r3,r2
   211b0:	1000020e 	bge	r2,zero,211bc <Focus_Window+0x54>
   211b4:	e03ffc0d 	sth	zero,-16(fp)
   211b8:	00001606 	br	21214 <Focus_Window+0xac>
	   else if(( x + focus_width/2 ) > video_w )  x_start = video_w -1 -focus_width;
   211bc:	d0a0010b 	ldhu	r2,-32764(gp)
   211c0:	10bfffcc 	andi	r2,r2,65535
   211c4:	1004d07a 	srli	r2,r2,1
   211c8:	10ffffcc 	andi	r3,r2,65535
   211cc:	e0bffe17 	ldw	r2,-8(fp)
   211d0:	1885883a 	add	r2,r3,r2
   211d4:	d0e0000b 	ldhu	r3,-32768(gp)
   211d8:	18ffffcc 	andi	r3,r3,65535
   211dc:	1880060e 	bge	r3,r2,211f8 <Focus_Window+0x90>
   211e0:	d0e0000b 	ldhu	r3,-32768(gp)
   211e4:	d0a0010b 	ldhu	r2,-32764(gp)
   211e8:	1885c83a 	sub	r2,r3,r2
   211ec:	10bfffc4 	addi	r2,r2,-1
   211f0:	e0bffc0d 	sth	r2,-16(fp)
   211f4:	00000706 	br	21214 <Focus_Window+0xac>
	   else x_start = x - focus_width/2;
   211f8:	e0bffe17 	ldw	r2,-8(fp)
   211fc:	1007883a 	mov	r3,r2
   21200:	d0a0010b 	ldhu	r2,-32764(gp)
   21204:	10bfffcc 	andi	r2,r2,65535
   21208:	1004d07a 	srli	r2,r2,1
   2120c:	1885c83a 	sub	r2,r3,r2
   21210:	e0bffc0d 	sth	r2,-16(fp)

	   if(( y -  focus_height/2) < 0 ) y_start = 0;
   21214:	d0a0018b 	ldhu	r2,-32762(gp)
   21218:	10bfffcc 	andi	r2,r2,65535
   2121c:	1004d07a 	srli	r2,r2,1
   21220:	10bfffcc 	andi	r2,r2,65535
   21224:	e0ffff17 	ldw	r3,-4(fp)
   21228:	1885c83a 	sub	r2,r3,r2
   2122c:	1000020e 	bge	r2,zero,21238 <Focus_Window+0xd0>
   21230:	e03ffc8d 	sth	zero,-14(fp)
   21234:	00001606 	br	21290 <Focus_Window+0x128>
	   else if(( y + focus_height/2 ) > video_h )  y_start = video_h -1 -focus_height;
   21238:	d0a0018b 	ldhu	r2,-32762(gp)
   2123c:	10bfffcc 	andi	r2,r2,65535
   21240:	1004d07a 	srli	r2,r2,1
   21244:	10ffffcc 	andi	r3,r2,65535
   21248:	e0bfff17 	ldw	r2,-4(fp)
   2124c:	1885883a 	add	r2,r3,r2
   21250:	d0e0008b 	ldhu	r3,-32766(gp)
   21254:	18ffffcc 	andi	r3,r3,65535
   21258:	1880060e 	bge	r3,r2,21274 <Focus_Window+0x10c>
   2125c:	d0e0008b 	ldhu	r3,-32766(gp)
   21260:	d0a0018b 	ldhu	r2,-32762(gp)
   21264:	1885c83a 	sub	r2,r3,r2
   21268:	10bfffc4 	addi	r2,r2,-1
   2126c:	e0bffc8d 	sth	r2,-14(fp)
   21270:	00000706 	br	21290 <Focus_Window+0x128>
	   else y_start = y - focus_height/2;
   21274:	e0bfff17 	ldw	r2,-4(fp)
   21278:	1007883a 	mov	r3,r2
   2127c:	d0a0018b 	ldhu	r2,-32762(gp)
   21280:	10bfffcc 	andi	r2,r2,65535
   21284:	1004d07a 	srli	r2,r2,1
   21288:	1885c83a 	sub	r2,r3,r2
   2128c:	e0bffc8d 	sth	r2,-14(fp)

	   printf("x_start= %d,y_start= %d\n",x_start,y_start);
   21290:	e0bffc0b 	ldhu	r2,-16(fp)
   21294:	e0fffc8b 	ldhu	r3,-14(fp)
   21298:	180d883a 	mov	r6,r3
   2129c:	100b883a 	mov	r5,r2
   212a0:	010000f4 	movhi	r4,3
   212a4:	211aa004 	addi	r4,r4,27264
   212a8:	0028b300 	call	28b30 <printf>

	   IOWR(TERASIC_AUTO_FOCUS_0_BASE,REG_FOCUS_X_START, x_start);//x_start
   212ac:	e0fffc0b 	ldhu	r3,-16(fp)
   212b0:	00800134 	movhi	r2,4
   212b4:	10841c04 	addi	r2,r2,4208
   212b8:	10c00035 	stwio	r3,0(r2)
	   IOWR(TERASIC_AUTO_FOCUS_0_BASE,REG_FOCUS_Y_START, y_start);//y_start
   212bc:	e0fffc8b 	ldhu	r3,-14(fp)
   212c0:	00800134 	movhi	r2,4
   212c4:	10841d04 	addi	r2,r2,4212
   212c8:	10c00035 	stwio	r3,0(r2)

	   usleep(10);
   212cc:	01000284 	movi	r4,10
   212d0:	00343040 	call	34304 <usleep>

	   IOWR(TERASIC_AUTO_FOCUS_0_BASE,REG_GO, 1);
   212d4:	00c00044 	movi	r3,1
   212d8:	00800134 	movhi	r2,4
   212dc:	10841804 	addi	r2,r2,4192
   212e0:	10c00035 	stwio	r3,0(r2)
	   usleep(2);
   212e4:	01000084 	movi	r4,2
   212e8:	00343040 	call	34304 <usleep>
	   IOWR(TERASIC_AUTO_FOCUS_0_BASE,REG_GO, 0);
   212ec:	0007883a 	mov	r3,zero
   212f0:	00800134 	movhi	r2,4
   212f4:	10841804 	addi	r2,r2,4192
   212f8:	10c00035 	stwio	r3,0(r2)
	   Focus_Released();
   212fc:	00213480 	call	21348 <Focus_Released>

	   end_focus = IORD(TERASIC_AUTO_FOCUS_0_BASE,REG_STATUS)&0x0FFF;
   21300:	00800134 	movhi	r2,4
   21304:	10841804 	addi	r2,r2,4192
   21308:	10800037 	ldwio	r2,0(r2)
   2130c:	1083ffcc 	andi	r2,r2,4095
   21310:	e0bffd0d 	sth	r2,-12(fp)
	   printf("end_focus = %d \n",end_focus);
   21314:	e0bffd0b 	ldhu	r2,-12(fp)
   21318:	100b883a 	mov	r5,r2
   2131c:	010000f4 	movhi	r4,3
   21320:	211aa704 	addi	r4,r4,27292
   21324:	0028b300 	call	28b30 <printf>

	   return end_focus;
   21328:	e0bffd0b 	ldhu	r2,-12(fp)
   2132c:	00000106 	br	21334 <Focus_Window+0x1cc>

   }
   return end_focus;
   21330:	e0bffd0b 	ldhu	r2,-12(fp)

}
   21334:	e037883a 	mov	sp,fp
   21338:	dfc00117 	ldw	ra,4(sp)
   2133c:	df000017 	ldw	fp,0(sp)
   21340:	dec00204 	addi	sp,sp,8
   21344:	f800283a 	ret

00021348 <Focus_Released>:

int Focus_Released(void){
   21348:	defffc04 	addi	sp,sp,-16
   2134c:	dfc00315 	stw	ra,12(sp)
   21350:	df000215 	stw	fp,8(sp)
   21354:	df000204 	addi	fp,sp,8
  int Released = FALSE;
   21358:	e03ffe15 	stw	zero,-8(fp)
 * alt_nticks() returns the elapsed number of system clock ticks since reset.
 */

static ALT_INLINE alt_u32 ALT_ALWAYS_INLINE alt_nticks (void)
{
  return _alt_nticks;
   2135c:	d0e90217 	ldw	r3,-23544(gp)
 * Obtain the system clock rate in ticks/s. 
 */

static ALT_INLINE alt_u32 ALT_ALWAYS_INLINE alt_ticks_per_second (void)
{
  return _alt_tick_rate;
   21360:	d0a90117 	ldw	r2,-23548(gp)
  alt_u32 TimeOut;

  TimeOut = alt_nticks() + alt_ticks_per_second()*8;
   21364:	100490fa 	slli	r2,r2,3
   21368:	1885883a 	add	r2,r3,r2
   2136c:	e0bfff15 	stw	r2,-4(fp)

  while((IORD(TERASIC_AUTO_FOCUS_0_BASE,REG_STATUS)&0x8000) ==0 && alt_nticks() < TimeOut ); // waiting for VCM release I2C bus
   21370:	0001883a 	nop
   21374:	00800134 	movhi	r2,4
   21378:	10841804 	addi	r2,r2,4192
   2137c:	10800037 	ldwio	r2,0(r2)
   21380:	10a0000c 	andi	r2,r2,32768
   21384:	1000031e 	bne	r2,zero,21394 <Focus_Released+0x4c>
 * alt_nticks() returns the elapsed number of system clock ticks since reset.
 */

static ALT_INLINE alt_u32 ALT_ALWAYS_INLINE alt_nticks (void)
{
  return _alt_nticks;
   21388:	d0e90217 	ldw	r3,-23544(gp)
   2138c:	e0bfff17 	ldw	r2,-4(fp)
   21390:	18bff836 	bltu	r3,r2,21374 <_gp+0xfffdf84c>
   21394:	d0e90217 	ldw	r3,-23544(gp)

  if(alt_nticks() < TimeOut ) Released = TRUE;
   21398:	e0bfff17 	ldw	r2,-4(fp)
   2139c:	1880032e 	bgeu	r3,r2,213ac <Focus_Released+0x64>
   213a0:	00800044 	movi	r2,1
   213a4:	e0bffe15 	stw	r2,-8(fp)
   213a8:	00000306 	br	213b8 <Focus_Released+0x70>
  else printf("\n =>Released check TimeOut!\n");
   213ac:	010000f4 	movhi	r4,3
   213b0:	211aac04 	addi	r4,r4,27312
   213b4:	0028c4c0 	call	28c4c <puts>

  usleep(10000);
   213b8:	0109c404 	movi	r4,10000
   213bc:	00343040 	call	34304 <usleep>

  return Released;
   213c0:	e0bffe17 	ldw	r2,-8(fp)
}
   213c4:	e037883a 	mov	sp,fp
   213c8:	dfc00117 	ldw	ra,4(sp)
   213cc:	df000017 	ldw	fp,0(sp)
   213d0:	dec00204 	addi	sp,sp,8
   213d4:	f800283a 	ret

000213d8 <mipi_clear_error>:
#define MIPI_REG_FrmErrCnt		0x0080
#define MIPI_REG_MDLErrCnt		0x0090

	// Given functions

void mipi_clear_error(void){
   213d8:	defffe04 	addi	sp,sp,-8
   213dc:	dfc00115 	stw	ra,4(sp)
   213e0:	df000015 	stw	fp,0(sp)
   213e4:	d839883a 	mov	fp,sp
	MipiBridgeRegWrite(MIPI_REG_CSIStatus,0x01FF); // clear error
   213e8:	01407fc4 	movi	r5,511
   213ec:	01001904 	movi	r4,100
   213f0:	00247800 	call	24780 <MipiBridgeRegWrite>
	MipiBridgeRegWrite(MIPI_REG_MDLSynErr,0x0000); // clear error
   213f4:	000b883a 	mov	r5,zero
   213f8:	01001a04 	movi	r4,104
   213fc:	00247800 	call	24780 <MipiBridgeRegWrite>
	MipiBridgeRegWrite(MIPI_REG_FrmErrCnt,0x0000); // clear error
   21400:	000b883a 	mov	r5,zero
   21404:	01002004 	movi	r4,128
   21408:	00247800 	call	24780 <MipiBridgeRegWrite>
	MipiBridgeRegWrite(MIPI_REG_MDLErrCnt, 0x0000); // clear error
   2140c:	000b883a 	mov	r5,zero
   21410:	01002404 	movi	r4,144
   21414:	00247800 	call	24780 <MipiBridgeRegWrite>

  	MipiBridgeRegWrite(0x0082,0x00);
   21418:	000b883a 	mov	r5,zero
   2141c:	01002084 	movi	r4,130
   21420:	00247800 	call	24780 <MipiBridgeRegWrite>
  	MipiBridgeRegWrite(0x0084,0x00);
   21424:	000b883a 	mov	r5,zero
   21428:	01002104 	movi	r4,132
   2142c:	00247800 	call	24780 <MipiBridgeRegWrite>
  	MipiBridgeRegWrite(0x0086,0x00);
   21430:	000b883a 	mov	r5,zero
   21434:	01002184 	movi	r4,134
   21438:	00247800 	call	24780 <MipiBridgeRegWrite>
  	MipiBridgeRegWrite(0x0088,0x00);
   2143c:	000b883a 	mov	r5,zero
   21440:	01002204 	movi	r4,136
   21444:	00247800 	call	24780 <MipiBridgeRegWrite>
  	MipiBridgeRegWrite(0x008A,0x00);
   21448:	000b883a 	mov	r5,zero
   2144c:	01002284 	movi	r4,138
   21450:	00247800 	call	24780 <MipiBridgeRegWrite>
  	MipiBridgeRegWrite(0x008C,0x00);
   21454:	000b883a 	mov	r5,zero
   21458:	01002304 	movi	r4,140
   2145c:	00247800 	call	24780 <MipiBridgeRegWrite>
  	MipiBridgeRegWrite(0x008E,0x00);
   21460:	000b883a 	mov	r5,zero
   21464:	01002384 	movi	r4,142
   21468:	00247800 	call	24780 <MipiBridgeRegWrite>
  	MipiBridgeRegWrite(0x0090,0x00);
   2146c:	000b883a 	mov	r5,zero
   21470:	01002404 	movi	r4,144
   21474:	00247800 	call	24780 <MipiBridgeRegWrite>
}
   21478:	0001883a 	nop
   2147c:	e037883a 	mov	sp,fp
   21480:	dfc00117 	ldw	ra,4(sp)
   21484:	df000017 	ldw	fp,0(sp)
   21488:	dec00204 	addi	sp,sp,8
   2148c:	f800283a 	ret

00021490 <mipi_show_error_info>:

void mipi_show_error_info(void){
   21490:	defff904 	addi	sp,sp,-28
   21494:	dfc00615 	stw	ra,24(sp)
   21498:	df000515 	stw	fp,20(sp)
   2149c:	df000504 	addi	fp,sp,20

	alt_u16 PHY_status, SCI_status, MDLSynErr, FrmErrCnt, MDLErrCnt;

	PHY_status = MipiBridgeRegRead(MIPI_REG_PHYSta);
   214a0:	01001884 	movi	r4,98
   214a4:	00247ec0 	call	247ec <MipiBridgeRegRead>
   214a8:	e0bffd0d 	sth	r2,-12(fp)
	SCI_status = MipiBridgeRegRead(MIPI_REG_CSIStatus);
   214ac:	01001904 	movi	r4,100
   214b0:	00247ec0 	call	247ec <MipiBridgeRegRead>
   214b4:	e0bffd8d 	sth	r2,-10(fp)
	MDLSynErr = MipiBridgeRegRead(MIPI_REG_MDLSynErr);
   214b8:	01001a04 	movi	r4,104
   214bc:	00247ec0 	call	247ec <MipiBridgeRegRead>
   214c0:	e0bffe0d 	sth	r2,-8(fp)
	FrmErrCnt = MipiBridgeRegRead(MIPI_REG_FrmErrCnt);
   214c4:	01002004 	movi	r4,128
   214c8:	00247ec0 	call	247ec <MipiBridgeRegRead>
   214cc:	e0bffe8d 	sth	r2,-6(fp)
	MDLErrCnt = MipiBridgeRegRead(MIPI_REG_MDLErrCnt);
   214d0:	01002404 	movi	r4,144
   214d4:	00247ec0 	call	247ec <MipiBridgeRegRead>
   214d8:	e0bfff0d 	sth	r2,-4(fp)
	printf("PHY_status=%xh, CSI_status=%xh, MDLSynErr=%xh, FrmErrCnt=%xh, MDLErrCnt=%xh\r\n", PHY_status, SCI_status, MDLSynErr,FrmErrCnt, MDLErrCnt);
   214dc:	e13ffd0b 	ldhu	r4,-12(fp)
   214e0:	e17ffd8b 	ldhu	r5,-10(fp)
   214e4:	e1bffe0b 	ldhu	r6,-8(fp)
   214e8:	e0bffe8b 	ldhu	r2,-6(fp)
   214ec:	e0ffff0b 	ldhu	r3,-4(fp)
   214f0:	d8c00115 	stw	r3,4(sp)
   214f4:	d8800015 	stw	r2,0(sp)
   214f8:	300f883a 	mov	r7,r6
   214fc:	280d883a 	mov	r6,r5
   21500:	200b883a 	mov	r5,r4
   21504:	010000f4 	movhi	r4,3
   21508:	211ab404 	addi	r4,r4,27344
   2150c:	0028b300 	call	28b30 <printf>
}
   21510:	0001883a 	nop
   21514:	e037883a 	mov	sp,fp
   21518:	dfc00117 	ldw	ra,4(sp)
   2151c:	df000017 	ldw	fp,0(sp)
   21520:	dec00204 	addi	sp,sp,8
   21524:	f800283a 	ret

00021528 <mipi_show_error_info_more>:

void mipi_show_error_info_more(void){
   21528:	defffe04 	addi	sp,sp,-8
   2152c:	dfc00115 	stw	ra,4(sp)
   21530:	df000015 	stw	fp,0(sp)
   21534:	d839883a 	mov	fp,sp
    printf("FrmErrCnt = %d\n",MipiBridgeRegRead(0x0080));
   21538:	01002004 	movi	r4,128
   2153c:	00247ec0 	call	247ec <MipiBridgeRegRead>
   21540:	10bfffcc 	andi	r2,r2,65535
   21544:	100b883a 	mov	r5,r2
   21548:	010000f4 	movhi	r4,3
   2154c:	211ac804 	addi	r4,r4,27424
   21550:	0028b300 	call	28b30 <printf>
    printf("CRCErrCnt = %d\n",MipiBridgeRegRead(0x0082));
   21554:	01002084 	movi	r4,130
   21558:	00247ec0 	call	247ec <MipiBridgeRegRead>
   2155c:	10bfffcc 	andi	r2,r2,65535
   21560:	100b883a 	mov	r5,r2
   21564:	010000f4 	movhi	r4,3
   21568:	211acc04 	addi	r4,r4,27440
   2156c:	0028b300 	call	28b30 <printf>
    printf("CorErrCnt = %d\n",MipiBridgeRegRead(0x0084));
   21570:	01002104 	movi	r4,132
   21574:	00247ec0 	call	247ec <MipiBridgeRegRead>
   21578:	10bfffcc 	andi	r2,r2,65535
   2157c:	100b883a 	mov	r5,r2
   21580:	010000f4 	movhi	r4,3
   21584:	211ad004 	addi	r4,r4,27456
   21588:	0028b300 	call	28b30 <printf>
    printf("HdrErrCnt = %d\n",MipiBridgeRegRead(0x0086));
   2158c:	01002184 	movi	r4,134
   21590:	00247ec0 	call	247ec <MipiBridgeRegRead>
   21594:	10bfffcc 	andi	r2,r2,65535
   21598:	100b883a 	mov	r5,r2
   2159c:	010000f4 	movhi	r4,3
   215a0:	211ad404 	addi	r4,r4,27472
   215a4:	0028b300 	call	28b30 <printf>
    printf("EIDErrCnt = %d\n",MipiBridgeRegRead(0x0088));
   215a8:	01002204 	movi	r4,136
   215ac:	00247ec0 	call	247ec <MipiBridgeRegRead>
   215b0:	10bfffcc 	andi	r2,r2,65535
   215b4:	100b883a 	mov	r5,r2
   215b8:	010000f4 	movhi	r4,3
   215bc:	211ad804 	addi	r4,r4,27488
   215c0:	0028b300 	call	28b30 <printf>
    printf("CtlErrCnt = %d\n",MipiBridgeRegRead(0x008A));
   215c4:	01002284 	movi	r4,138
   215c8:	00247ec0 	call	247ec <MipiBridgeRegRead>
   215cc:	10bfffcc 	andi	r2,r2,65535
   215d0:	100b883a 	mov	r5,r2
   215d4:	010000f4 	movhi	r4,3
   215d8:	211adc04 	addi	r4,r4,27504
   215dc:	0028b300 	call	28b30 <printf>
    printf("SoTErrCnt = %d\n",MipiBridgeRegRead(0x008C));
   215e0:	01002304 	movi	r4,140
   215e4:	00247ec0 	call	247ec <MipiBridgeRegRead>
   215e8:	10bfffcc 	andi	r2,r2,65535
   215ec:	100b883a 	mov	r5,r2
   215f0:	010000f4 	movhi	r4,3
   215f4:	211ae004 	addi	r4,r4,27520
   215f8:	0028b300 	call	28b30 <printf>
    printf("SynErrCnt = %d\n",MipiBridgeRegRead(0x008E));
   215fc:	01002384 	movi	r4,142
   21600:	00247ec0 	call	247ec <MipiBridgeRegRead>
   21604:	10bfffcc 	andi	r2,r2,65535
   21608:	100b883a 	mov	r5,r2
   2160c:	010000f4 	movhi	r4,3
   21610:	211ae404 	addi	r4,r4,27536
   21614:	0028b300 	call	28b30 <printf>
    printf("MDLErrCnt = %d\n",MipiBridgeRegRead(0x0090));
   21618:	01002404 	movi	r4,144
   2161c:	00247ec0 	call	247ec <MipiBridgeRegRead>
   21620:	10bfffcc 	andi	r2,r2,65535
   21624:	100b883a 	mov	r5,r2
   21628:	010000f4 	movhi	r4,3
   2162c:	211ae804 	addi	r4,r4,27552
   21630:	0028b300 	call	28b30 <printf>
    printf("FIFOSTATUS = %d\n",MipiBridgeRegRead(0x00F8));
   21634:	01003e04 	movi	r4,248
   21638:	00247ec0 	call	247ec <MipiBridgeRegRead>
   2163c:	10bfffcc 	andi	r2,r2,65535
   21640:	100b883a 	mov	r5,r2
   21644:	010000f4 	movhi	r4,3
   21648:	211aec04 	addi	r4,r4,27568
   2164c:	0028b300 	call	28b30 <printf>
    printf("DataType = 0x%04x\n",MipiBridgeRegRead(0x006A));
   21650:	01001a84 	movi	r4,106
   21654:	00247ec0 	call	247ec <MipiBridgeRegRead>
   21658:	10bfffcc 	andi	r2,r2,65535
   2165c:	100b883a 	mov	r5,r2
   21660:	010000f4 	movhi	r4,3
   21664:	211af104 	addi	r4,r4,27588
   21668:	0028b300 	call	28b30 <printf>
    printf("CSIPktLen = %d\n",MipiBridgeRegRead(0x006E));
   2166c:	01001b84 	movi	r4,110
   21670:	00247ec0 	call	247ec <MipiBridgeRegRead>
   21674:	10bfffcc 	andi	r2,r2,65535
   21678:	100b883a 	mov	r5,r2
   2167c:	010000f4 	movhi	r4,3
   21680:	211af604 	addi	r4,r4,27608
   21684:	0028b300 	call	28b30 <printf>
}
   21688:	0001883a 	nop
   2168c:	e037883a 	mov	sp,fp
   21690:	dfc00117 	ldw	ra,4(sp)
   21694:	df000017 	ldw	fp,0(sp)
   21698:	dec00204 	addi	sp,sp,8
   2169c:	f800283a 	ret

000216a0 <MIPI_Init>:

bool MIPI_Init(void){
   216a0:	defffd04 	addi	sp,sp,-12
   216a4:	dfc00215 	stw	ra,8(sp)
   216a8:	df000115 	stw	fp,4(sp)
   216ac:	df000104 	addi	fp,sp,4
	bool bSuccess;


	bSuccess = oc_i2c_init_ex(I2C_OPENCORES_MIPI_BASE, 50*1000*1000,400*1000); //I2C: 400K
   216b0:	018001b4 	movhi	r6,6
   216b4:	3186a004 	addi	r6,r6,6784
   216b8:	0140bef4 	movhi	r5,763
   216bc:	297c2004 	addi	r5,r5,-3968
   216c0:	01000134 	movhi	r4,4
   216c4:	21042804 	addi	r4,r4,4256
   216c8:	002039c0 	call	2039c <oc_i2c_init_ex>
   216cc:	e0bfff15 	stw	r2,-4(fp)
	if (!bSuccess)
   216d0:	e0bfff17 	ldw	r2,-4(fp)
   216d4:	1000031e 	bne	r2,zero,216e4 <MIPI_Init+0x44>
		printf("failed to init MIPI- Bridge i2c\r\n");
   216d8:	010000f4 	movhi	r4,3
   216dc:	211afa04 	addi	r4,r4,27624
   216e0:	0028c4c0 	call	28c4c <puts>

    usleep(50*1000);
   216e4:	0130d414 	movui	r4,50000
   216e8:	00343040 	call	34304 <usleep>
    MipiBridgeInit();
   216ec:	00248640 	call	24864 <MipiBridgeInit>

    usleep(500*1000);
   216f0:	01000234 	movhi	r4,8
   216f4:	21284804 	addi	r4,r4,-24288
   216f8:	00343040 	call	34304 <usleep>

    MipiCameraInit();
   216fc:	00250480 	call	25048 <MipiCameraInit>
    MIPI_BIN_LEVEL(DEFAULT_LEVEL);
   21700:	010000c4 	movi	r4,3
   21704:	0024e880 	call	24e88 <MIPI_BIN_LEVEL>

 	usleep(1000);
   21708:	0100fa04 	movi	r4,1000
   2170c:	00343040 	call	34304 <usleep>

	return bSuccess;
   21710:	e0bfff17 	ldw	r2,-4(fp)
}
   21714:	e037883a 	mov	sp,fp
   21718:	dfc00117 	ldw	ra,4(sp)
   2171c:	df000017 	ldw	fp,0(sp)
   21720:	dec00204 	addi	sp,sp,8
   21724:	f800283a 	ret

00021728 <is_ball>:
	float x_coord, y_coord;
	bool seen, seen1, seen2, seen3; // if seen overall and if seen in the 2nd scan
} Ball;

// Analyses if the object is actually the ball or not
bool is_ball(int left_x, int right_x, int left_y, int right_y){
   21728:	defff604 	addi	sp,sp,-40
   2172c:	dfc00915 	stw	ra,36(sp)
   21730:	df000815 	stw	fp,32(sp)
   21734:	dc400715 	stw	r17,28(sp)
   21738:	dc000615 	stw	r16,24(sp)
   2173c:	df000804 	addi	fp,sp,32
   21740:	e13ffa15 	stw	r4,-24(fp)
   21744:	e17ffb15 	stw	r5,-20(fp)
   21748:	e1bffc15 	stw	r6,-16(fp)
   2174c:	e1fffd15 	stw	r7,-12(fp)
	int height = right_y - left_y;
   21750:	e0fffd17 	ldw	r3,-12(fp)
   21754:	e0bffc17 	ldw	r2,-16(fp)
   21758:	1885c83a 	sub	r2,r3,r2
   2175c:	e0bff815 	stw	r2,-32(fp)
	//printf("Height : %i ", height);
	int length = right_x - left_x;
   21760:	e0fffb17 	ldw	r3,-20(fp)
   21764:	e0bffa17 	ldw	r2,-24(fp)
   21768:	1885c83a 	sub	r2,r3,r2
   2176c:	e0bff915 	stw	r2,-28(fp)
	//printf("Length : %i\n", length);

	// If the length is within 10% of the height, we can consider this as a proper box
	if (length < height * 1.3 && length > height * 0.7 && height > 5 && height < 175 && length > 5 && length < 175 ){ // ADJUST PARAMETERS HERE
   21770:	e13ff917 	ldw	r4,-28(fp)
   21774:	0026a180 	call	26a18 <__floatsidf>
   21778:	1021883a 	mov	r16,r2
   2177c:	1823883a 	mov	r17,r3
   21780:	e13ff817 	ldw	r4,-32(fp)
   21784:	0026a180 	call	26a18 <__floatsidf>
   21788:	1011883a 	mov	r8,r2
   2178c:	1813883a 	mov	r9,r3
   21790:	01b33374 	movhi	r6,52429
   21794:	31b33344 	addi	r6,r6,-13107
   21798:	01cffd74 	movhi	r7,16373
   2179c:	39f33304 	addi	r7,r7,-13108
   217a0:	4009883a 	mov	r4,r8
   217a4:	480b883a 	mov	r5,r9
   217a8:	00263000 	call	26300 <__muldf3>
   217ac:	1009883a 	mov	r4,r2
   217b0:	180b883a 	mov	r5,r3
   217b4:	2005883a 	mov	r2,r4
   217b8:	2807883a 	mov	r3,r5
   217bc:	100d883a 	mov	r6,r2
   217c0:	180f883a 	mov	r7,r3
   217c4:	8009883a 	mov	r4,r16
   217c8:	880b883a 	mov	r5,r17
   217cc:	002620c0 	call	2620c <__ledf2>
   217d0:	1000270e 	bge	r2,zero,21870 <is_ball+0x148>
   217d4:	e13ff917 	ldw	r4,-28(fp)
   217d8:	0026a180 	call	26a18 <__floatsidf>
   217dc:	1021883a 	mov	r16,r2
   217e0:	1823883a 	mov	r17,r3
   217e4:	e13ff817 	ldw	r4,-32(fp)
   217e8:	0026a180 	call	26a18 <__floatsidf>
   217ec:	1011883a 	mov	r8,r2
   217f0:	1813883a 	mov	r9,r3
   217f4:	019999b4 	movhi	r6,26214
   217f8:	31999984 	addi	r6,r6,26214
   217fc:	01cff9b4 	movhi	r7,16358
   21800:	39d99984 	addi	r7,r7,26214
   21804:	4009883a 	mov	r4,r8
   21808:	480b883a 	mov	r5,r9
   2180c:	00263000 	call	26300 <__muldf3>
   21810:	1009883a 	mov	r4,r2
   21814:	180b883a 	mov	r5,r3
   21818:	2005883a 	mov	r2,r4
   2181c:	2807883a 	mov	r3,r5
   21820:	100d883a 	mov	r6,r2
   21824:	180f883a 	mov	r7,r3
   21828:	8009883a 	mov	r4,r16
   2182c:	880b883a 	mov	r5,r17
   21830:	00261300 	call	26130 <__gedf2>
   21834:	00800e0e 	bge	zero,r2,21870 <is_ball+0x148>
   21838:	e0bff817 	ldw	r2,-32(fp)
   2183c:	10800190 	cmplti	r2,r2,6
   21840:	10000b1e 	bne	r2,zero,21870 <is_ball+0x148>
   21844:	e0bff817 	ldw	r2,-32(fp)
   21848:	10802bc8 	cmpgei	r2,r2,175
   2184c:	1000081e 	bne	r2,zero,21870 <is_ball+0x148>
   21850:	e0bff917 	ldw	r2,-28(fp)
   21854:	10800190 	cmplti	r2,r2,6
   21858:	1000051e 	bne	r2,zero,21870 <is_ball+0x148>
   2185c:	e0bff917 	ldw	r2,-28(fp)
   21860:	10802bc8 	cmpgei	r2,r2,175
   21864:	1000021e 	bne	r2,zero,21870 <is_ball+0x148>
		return TRUE;
   21868:	00800044 	movi	r2,1
   2186c:	00000106 	br	21874 <is_ball+0x14c>
	}
	return FALSE;
   21870:	0005883a 	mov	r2,zero
}
   21874:	e6fffe04 	addi	sp,fp,-8
   21878:	dfc00317 	ldw	ra,12(sp)
   2187c:	df000217 	ldw	fp,8(sp)
   21880:	dc400117 	ldw	r17,4(sp)
   21884:	dc000017 	ldw	r16,0(sp)
   21888:	dec00404 	addi	sp,sp,16
   2188c:	f800283a 	ret

00021890 <is_in_centre_range>:

// Analyses if the ball is close to the centre of the camera frame
bool is_in_centre_range(int left_x, int right_x){
   21890:	defffc04 	addi	sp,sp,-16
   21894:	df000315 	stw	fp,12(sp)
   21898:	df000304 	addi	fp,sp,12
   2189c:	e13ffe15 	stw	r4,-8(fp)
   218a0:	e17fff15 	stw	r5,-4(fp)
	int middle_x = (right_x + left_x) / 2;
   218a4:	e0ffff17 	ldw	r3,-4(fp)
   218a8:	e0bffe17 	ldw	r2,-8(fp)
   218ac:	1885883a 	add	r2,r3,r2
   218b0:	1006d7fa 	srli	r3,r2,31
   218b4:	1885883a 	add	r2,r3,r2
   218b8:	1005d07a 	srai	r2,r2,1
   218bc:	e0bffd15 	stw	r2,-12(fp)
	// middle x-axis pixel = 320
	if (middle_x < 400 && middle_x > 240){
   218c0:	e0bffd17 	ldw	r2,-12(fp)
   218c4:	10806408 	cmpgei	r2,r2,400
   218c8:	1000051e 	bne	r2,zero,218e0 <is_in_centre_range+0x50>
   218cc:	e0bffd17 	ldw	r2,-12(fp)
   218d0:	10803c50 	cmplti	r2,r2,241
   218d4:	1000021e 	bne	r2,zero,218e0 <is_in_centre_range+0x50>
		return TRUE;
   218d8:	00800044 	movi	r2,1
   218dc:	00000106 	br	218e4 <is_in_centre_range+0x54>
	}else{
		return FALSE;
   218e0:	0005883a 	mov	r2,zero
	}
}
   218e4:	e037883a 	mov	sp,fp
   218e8:	df000017 	ldw	fp,0(sp)
   218ec:	dec00104 	addi	sp,sp,4
   218f0:	f800283a 	ret

000218f4 <distance_check_z1>:

// Accurate distance scan parameters
bool distance_check_z1(int distance){
   218f4:	defffe04 	addi	sp,sp,-8
   218f8:	df000115 	stw	fp,4(sp)
   218fc:	df000104 	addi	fp,sp,4
   21900:	e13fff15 	stw	r4,-4(fp)
	if (distance >= 25 && distance < 80){
   21904:	e0bfff17 	ldw	r2,-4(fp)
   21908:	10800650 	cmplti	r2,r2,25
   2190c:	1000051e 	bne	r2,zero,21924 <distance_check_z1+0x30>
   21910:	e0bfff17 	ldw	r2,-4(fp)
   21914:	10801408 	cmpgei	r2,r2,80
   21918:	1000021e 	bne	r2,zero,21924 <distance_check_z1+0x30>
		return TRUE;
   2191c:	00800044 	movi	r2,1
   21920:	00000106 	br	21928 <distance_check_z1+0x34>
	}else{
		return FALSE;
   21924:	0005883a 	mov	r2,zero
	}
}
   21928:	e037883a 	mov	sp,fp
   2192c:	df000017 	ldw	fp,0(sp)
   21930:	dec00104 	addi	sp,sp,4
   21934:	f800283a 	ret

00021938 <distance_check_z2>:

// Vague distance scan parameters
bool distance_check_z2(int distance){
   21938:	defffe04 	addi	sp,sp,-8
   2193c:	df000115 	stw	fp,4(sp)
   21940:	df000104 	addi	fp,sp,4
   21944:	e13fff15 	stw	r4,-4(fp)
	if (distance >= 80 && distance <= 180){
   21948:	e0bfff17 	ldw	r2,-4(fp)
   2194c:	10801410 	cmplti	r2,r2,80
   21950:	1000051e 	bne	r2,zero,21968 <distance_check_z2+0x30>
   21954:	e0bfff17 	ldw	r2,-4(fp)
   21958:	10802d48 	cmpgei	r2,r2,181
   2195c:	1000021e 	bne	r2,zero,21968 <distance_check_z2+0x30>
		return TRUE;
   21960:	00800044 	movi	r2,1
   21964:	00000106 	br	2196c <distance_check_z2+0x34>
	}else{
		return FALSE;
   21968:	0005883a 	mov	r2,zero
	}
}
   2196c:	e037883a 	mov	sp,fp
   21970:	df000017 	ldw	fp,0(sp)
   21974:	dec00104 	addi	sp,sp,4
   21978:	f800283a 	ret

0002197c <distance_calc>:

// Function that returns the distance of the ball from the camera based on its boundary
//		box coordinates
int distance_calc(int left_x, int right_x, int left_y, int right_y){
   2197c:	defff404 	addi	sp,sp,-48
   21980:	dfc00b15 	stw	ra,44(sp)
   21984:	df000a15 	stw	fp,40(sp)
   21988:	df000a04 	addi	fp,sp,40
   2198c:	e13ffc15 	stw	r4,-16(fp)
   21990:	e17ffd15 	stw	r5,-12(fp)
   21994:	e1bffe15 	stw	r6,-8(fp)
   21998:	e1ffff15 	stw	r7,-4(fp)

		// D = (W*F)/P
	// W = diameter of the ball
	float W = 3.95;
   2199c:	00901f74 	movhi	r2,16509
   219a0:	10b33344 	addi	r2,r2,-13107
   219a4:	e0bff715 	stw	r2,-36(fp)
	// F = Focal length
	float F = 700;
   219a8:	00910bf4 	movhi	r2,17455
   219ac:	e0bff815 	stw	r2,-32(fp)
	// P = apparent width in pixels
	float width = right_x - left_x;
   219b0:	e0fffd17 	ldw	r3,-12(fp)
   219b4:	e0bffc17 	ldw	r2,-16(fp)
   219b8:	1885c83a 	sub	r2,r3,r2
   219bc:	1009883a 	mov	r4,r2
   219c0:	002600c0 	call	2600c <__floatsisf>
   219c4:	1007883a 	mov	r3,r2
   219c8:	e0fff915 	stw	r3,-28(fp)
	float height = left_y - right_y;
   219cc:	e0fffe17 	ldw	r3,-8(fp)
   219d0:	e0bfff17 	ldw	r2,-4(fp)
   219d4:	1885c83a 	sub	r2,r3,r2
   219d8:	1009883a 	mov	r4,r2
   219dc:	002600c0 	call	2600c <__floatsisf>
   219e0:	1007883a 	mov	r3,r2
   219e4:	e0fffa15 	stw	r3,-24(fp)
	float P;
	if (width > height){
   219e8:	e17ffa17 	ldw	r5,-24(fp)
   219ec:	e13ff917 	ldw	r4,-28(fp)
   219f0:	0025ae40 	call	25ae4 <__gesf2>
   219f4:	0080030e 	bge	zero,r2,21a04 <distance_calc+0x88>
		P = width;
   219f8:	e0bff917 	ldw	r2,-28(fp)
   219fc:	e0bff615 	stw	r2,-40(fp)
   21a00:	00000206 	br	21a0c <distance_calc+0x90>
	}else{
		P = height;
   21a04:	e0bffa17 	ldw	r2,-24(fp)
   21a08:	e0bff615 	stw	r2,-40(fp)
	}

	// D = Distance from camera
	float D = (W*F)/P;
   21a0c:	e17ff817 	ldw	r5,-32(fp)
   21a10:	e13ff717 	ldw	r4,-36(fp)
   21a14:	0025ba00 	call	25ba0 <__mulsf3>
   21a18:	1007883a 	mov	r3,r2
   21a1c:	1805883a 	mov	r2,r3
   21a20:	e17ff617 	ldw	r5,-40(fp)
   21a24:	1009883a 	mov	r4,r2
   21a28:	00256a40 	call	256a4 <__divsf3>
   21a2c:	1007883a 	mov	r3,r2
   21a30:	e0fffb15 	stw	r3,-20(fp)
	return abs(D);
   21a34:	e13ffb17 	ldw	r4,-20(fp)
   21a38:	0025f9c0 	call	25f9c <__fixsfsi>
   21a3c:	1000010e 	bge	r2,zero,21a44 <distance_calc+0xc8>
   21a40:	0085c83a 	sub	r2,zero,r2
}
   21a44:	e037883a 	mov	sp,fp
   21a48:	dfc00117 	ldw	ra,4(sp)
   21a4c:	df000017 	ldw	fp,0(sp)
   21a50:	dec00204 	addi	sp,sp,8
   21a54:	f800283a 	ret

00021a58 <go_towards>:
//		End of the while loop is caused by the distance to the ball being within a specific range. Function returns true
//		After we've gotten to the ball (and measured/set distance for the final time), we update state to 0 to restart the loop

// Function that corrects the angle as we drive towards the ball, returns TRUE once we've
//		reached the ball input by the argument ball
bool go_towards(Ball *ball, FILE* fp){
   21a58:	deff9004 	addi	sp,sp,-448
   21a5c:	dfc06f15 	stw	ra,444(sp)
   21a60:	df006e15 	stw	fp,440(sp)
   21a64:	df006e04 	addi	fp,sp,440
   21a68:	e13ffe15 	stw	r4,-8(fp)
   21a6c:	e17fff15 	stw	r5,-4(fp)
	int verilog_word;
	int distance;

	int s1, s2, s3;
	s1 = 0;
   21a70:	e03f9315 	stw	zero,-436(fp)
	s2 = 0;
   21a74:	e03f9415 	stw	zero,-432(fp)
	s3 = 0;
   21a78:	e03f9515 	stw	zero,-428(fp)

	if(ball->colour == 'R'){
   21a7c:	e0bffe17 	ldw	r2,-8(fp)
   21a80:	10800003 	ldbu	r2,0(r2)
   21a84:	10803fcc 	andi	r2,r2,255
   21a88:	1080201c 	xori	r2,r2,128
   21a8c:	10bfe004 	addi	r2,r2,-128
   21a90:	10801498 	cmpnei	r2,r2,82
   21a94:	1001551e 	bne	r2,zero,21fec <go_towards+0x594>
		printf("Going towards red\n");
   21a98:	010000f4 	movhi	r4,3
   21a9c:	211b0304 	addi	r4,r4,27660
   21aa0:	0028c4c0 	call	28c4c <puts>
		while (1) {
			fflush(fp);
   21aa4:	e13fff17 	ldw	r4,-4(fp)
   21aa8:	0026dd00 	call	26dd0 <fflush>
//    		if((IORD(EEE_IMGPROC_0_BASE,EEE_IMGPROC_STATUS)>>8) & 0xff){
			// Update the boundary box co-ordinates
			verilog_word = IORD(EEE_IMGPROC_0_BASE,EEE_IMGPROC_MSG);
   21aac:	00800134 	movhi	r2,4
   21ab0:	10840904 	addi	r2,r2,4132
   21ab4:	10800037 	ldwio	r2,0(r2)
   21ab8:	e0bf9615 	stw	r2,-424(fp)
			if (verilog_word == EEE_IMGPROC_MSG_START_R){ // If the incoming string == RBB
   21abc:	e0ff9617 	ldw	r3,-424(fp)
   21ac0:	008014b4 	movhi	r2,82
   21ac4:	10909084 	addi	r2,r2,16962
   21ac8:	18809d1e 	bne	r3,r2,21d40 <go_towards+0x2e8>
				//printf("Detected the start of red coordinates\n");
				int r_topleft = IORD(EEE_IMGPROC_0_BASE,EEE_IMGPROC_MSG); // Grab the next word (top left coordinate)
   21acc:	00800134 	movhi	r2,4
   21ad0:	10840904 	addi	r2,r2,4132
   21ad4:	10800037 	ldwio	r2,0(r2)
   21ad8:	e0bfa915 	stw	r2,-348(fp)
				int r_bottomright = IORD(EEE_IMGPROC_0_BASE,EEE_IMGPROC_MSG); // Grab the next word (bottom right coordinate)
   21adc:	00800134 	movhi	r2,4
   21ae0:	10840904 	addi	r2,r2,4132
   21ae4:	10800037 	ldwio	r2,0(r2)
   21ae8:	e0bfaa15 	stw	r2,-344(fp)

				int r_left_x = (r_topleft)>>16; // extracting the top 16 bits
   21aec:	e0bfa917 	ldw	r2,-348(fp)
   21af0:	1005d43a 	srai	r2,r2,16
   21af4:	e0bfab15 	stw	r2,-340(fp)
				int r_right_x = (r_bottomright)>>16;
   21af8:	e0bfaa17 	ldw	r2,-344(fp)
   21afc:	1005d43a 	srai	r2,r2,16
   21b00:	e0bfac15 	stw	r2,-336(fp)
				int r_left_y = (r_topleft & 0x0000ffff);
   21b04:	e0bfa917 	ldw	r2,-348(fp)
   21b08:	10bfffcc 	andi	r2,r2,65535
   21b0c:	e0bfad15 	stw	r2,-332(fp)
				int r_right_y = (r_bottomright & 0x0000ffff);
   21b10:	e0bfaa17 	ldw	r2,-344(fp)
   21b14:	10bfffcc 	andi	r2,r2,65535
   21b18:	e0bfae15 	stw	r2,-328(fp)
				if(is_ball(r_left_x, r_right_x, r_left_y, r_right_y)){
   21b1c:	e1ffae17 	ldw	r7,-328(fp)
   21b20:	e1bfad17 	ldw	r6,-332(fp)
   21b24:	e17fac17 	ldw	r5,-336(fp)
   21b28:	e13fab17 	ldw	r4,-340(fp)
   21b2c:	00217280 	call	21728 <is_ball>
   21b30:	103fdc26 	beq	r2,zero,21aa4 <_gp+0xfffdff7c>
					printf("is ball\n");
   21b34:	010000f4 	movhi	r4,3
   21b38:	211b0804 	addi	r4,r4,27680
   21b3c:	0028c4c0 	call	28c4c <puts>
					// Measure angle and correct if needed to
					int middle_pix = (r_right_x + r_left_x) / 2;
   21b40:	e0ffac17 	ldw	r3,-336(fp)
   21b44:	e0bfab17 	ldw	r2,-340(fp)
   21b48:	1885883a 	add	r2,r3,r2
   21b4c:	1006d7fa 	srli	r3,r2,31
   21b50:	1885883a 	add	r2,r3,r2
   21b54:	1005d07a 	srai	r2,r2,1
   21b58:	e0bfaf15 	stw	r2,-324(fp)
					//printf("middle pixel : %i\n", middle_pix);
					if (middle_pix < 240 && s1 == 0){
   21b5c:	e0bfaf17 	ldw	r2,-324(fp)
   21b60:	10803c08 	cmpgei	r2,r2,240
   21b64:	1000101e 	bne	r2,zero,21ba8 <go_towards+0x150>
   21b68:	e0bf9317 	ldw	r2,-436(fp)
   21b6c:	10000e1e 	bne	r2,zero,21ba8 <go_towards+0x150>
						fprintf(fp, "v0l!\n");
   21b70:	e1ffff17 	ldw	r7,-4(fp)
   21b74:	01800144 	movi	r6,5
   21b78:	01400044 	movi	r5,1
   21b7c:	010000f4 	movhi	r4,3
   21b80:	211b0a04 	addi	r4,r4,27688
   21b84:	0027e5c0 	call	27e5c <fwrite>
						printf("r : turn left\n");
   21b88:	010000f4 	movhi	r4,3
   21b8c:	211b0c04 	addi	r4,r4,27696
   21b90:	0028c4c0 	call	28c4c <puts>
						s1 = 1;
   21b94:	00800044 	movi	r2,1
   21b98:	e0bf9315 	stw	r2,-436(fp)
						s2 = 0;
   21b9c:	e03f9415 	stw	zero,-432(fp)
						s3 = 0;
   21ba0:	e03f9515 	stw	zero,-428(fp)
   21ba4:	00003106 	br	21c6c <go_towards+0x214>
					}else if(middle_pix > 400 && s2 == 0){
   21ba8:	e0bfaf17 	ldw	r2,-324(fp)
   21bac:	10806450 	cmplti	r2,r2,401
   21bb0:	1000101e 	bne	r2,zero,21bf4 <go_towards+0x19c>
   21bb4:	e0bf9417 	ldw	r2,-432(fp)
   21bb8:	10000e1e 	bne	r2,zero,21bf4 <go_towards+0x19c>
						fprintf(fp, "v0r!\n");
   21bbc:	e1ffff17 	ldw	r7,-4(fp)
   21bc0:	01800144 	movi	r6,5
   21bc4:	01400044 	movi	r5,1
   21bc8:	010000f4 	movhi	r4,3
   21bcc:	211b1004 	addi	r4,r4,27712
   21bd0:	0027e5c0 	call	27e5c <fwrite>
						printf("r : turn right\n");
   21bd4:	010000f4 	movhi	r4,3
   21bd8:	211b1204 	addi	r4,r4,27720
   21bdc:	0028c4c0 	call	28c4c <puts>
						s1 = 0;
   21be0:	e03f9315 	stw	zero,-436(fp)
						s2 = 1;
   21be4:	00800044 	movi	r2,1
   21be8:	e0bf9415 	stw	r2,-432(fp)
						s3 = 0;
   21bec:	e03f9515 	stw	zero,-428(fp)
   21bf0:	00001e06 	br	21c6c <go_towards+0x214>
					}else if (middle_pix <= 400 && middle_pix >= 240 && s3 == 0){
   21bf4:	e0bfaf17 	ldw	r2,-324(fp)
   21bf8:	10806448 	cmpgei	r2,r2,401
   21bfc:	1000131e 	bne	r2,zero,21c4c <go_towards+0x1f4>
   21c00:	e0bfaf17 	ldw	r2,-324(fp)
   21c04:	10803c10 	cmplti	r2,r2,240
   21c08:	1000101e 	bne	r2,zero,21c4c <go_towards+0x1f4>
   21c0c:	e0bf9517 	ldw	r2,-428(fp)
   21c10:	10000e1e 	bne	r2,zero,21c4c <go_towards+0x1f4>
						fprintf(fp, "v0g!\n");
   21c14:	e1ffff17 	ldw	r7,-4(fp)
   21c18:	01800144 	movi	r6,5
   21c1c:	01400044 	movi	r5,1
   21c20:	010000f4 	movhi	r4,3
   21c24:	211b1604 	addi	r4,r4,27736
   21c28:	0027e5c0 	call	27e5c <fwrite>
						printf("r : go forward\n");
   21c2c:	010000f4 	movhi	r4,3
   21c30:	211b1804 	addi	r4,r4,27744
   21c34:	0028c4c0 	call	28c4c <puts>
						s1 = 0;
   21c38:	e03f9315 	stw	zero,-436(fp)
						s2 = 0;
   21c3c:	e03f9415 	stw	zero,-432(fp)
						s3 = 1;
   21c40:	00800044 	movi	r2,1
   21c44:	e0bf9515 	stw	r2,-428(fp)
   21c48:	00000806 	br	21c6c <go_towards+0x214>
					}else if(r_right_x >= 639 && r_left_x == 0){
   21c4c:	e0bfac17 	ldw	r2,-336(fp)
   21c50:	10809fd0 	cmplti	r2,r2,639
   21c54:	1000051e 	bne	r2,zero,21c6c <go_towards+0x214>
   21c58:	e0bfab17 	ldw	r2,-340(fp)
   21c5c:	1000031e 	bne	r2,zero,21c6c <go_towards+0x214>
						printf("Out of vision\n");
   21c60:	010000f4 	movhi	r4,3
   21c64:	211b1c04 	addi	r4,r4,27760
   21c68:	0028c4c0 	call	28c4c <puts>
					}

					// If we can make a valid decision measurement, make it
					if(is_ball(r_left_x, r_right_x, r_left_y, r_right_y) && middle_pix <= 440 && middle_pix >= 200){
   21c6c:	e1ffae17 	ldw	r7,-328(fp)
   21c70:	e1bfad17 	ldw	r6,-332(fp)
   21c74:	e17fac17 	ldw	r5,-336(fp)
   21c78:	e13fab17 	ldw	r4,-340(fp)
   21c7c:	00217280 	call	21728 <is_ball>
   21c80:	103f8826 	beq	r2,zero,21aa4 <_gp+0xfffdff7c>
   21c84:	e0bfaf17 	ldw	r2,-324(fp)
   21c88:	10806e48 	cmpgei	r2,r2,441
   21c8c:	103f851e 	bne	r2,zero,21aa4 <_gp+0xfffdff7c>
   21c90:	e0bfaf17 	ldw	r2,-324(fp)
   21c94:	10803210 	cmplti	r2,r2,200
   21c98:	103f821e 	bne	r2,zero,21aa4 <_gp+0xfffdff7c>
						printf("Is ball and is centred\n");
   21c9c:	010000f4 	movhi	r4,3
   21ca0:	211b2004 	addi	r4,r4,27776
   21ca4:	0028c4c0 	call	28c4c <puts>
						distance = distance_calc(r_left_x, r_right_x, r_left_y, r_right_y);
   21ca8:	e1ffae17 	ldw	r7,-328(fp)
   21cac:	e1bfad17 	ldw	r6,-332(fp)
   21cb0:	e17fac17 	ldw	r5,-336(fp)
   21cb4:	e13fab17 	ldw	r4,-340(fp)
   21cb8:	002197c0 	call	2197c <distance_calc>
   21cbc:	e0bf9215 	stw	r2,-440(fp)
						printf("Distance : %i\n", distance);
   21cc0:	e17f9217 	ldw	r5,-440(fp)
   21cc4:	010000f4 	movhi	r4,3
   21cc8:	211b2604 	addi	r4,r4,27800
   21ccc:	0028b300 	call	28b30 <printf>
						if (distance < 80 && distance > 25){
   21cd0:	e0bf9217 	ldw	r2,-440(fp)
   21cd4:	10801408 	cmpgei	r2,r2,80
   21cd8:	103f721e 	bne	r2,zero,21aa4 <_gp+0xfffdff7c>
   21cdc:	e0bf9217 	ldw	r2,-440(fp)
   21ce0:	10800690 	cmplti	r2,r2,26
   21ce4:	103f6f1e 	bne	r2,zero,21aa4 <_gp+0xfffdff7c>
							printf("Reached red\n");
   21ce8:	010000f4 	movhi	r4,3
   21cec:	211b2a04 	addi	r4,r4,27816
   21cf0:	0028c4c0 	call	28c4c <puts>
							// Update members
							fprintf(fp, "v0s!\n");
   21cf4:	e1ffff17 	ldw	r7,-4(fp)
   21cf8:	01800144 	movi	r6,5
   21cfc:	01400044 	movi	r5,1
   21d00:	010000f4 	movhi	r4,3
   21d04:	211b2d04 	addi	r4,r4,27828
   21d08:	0027e5c0 	call	27e5c <fwrite>
							ball->distance = distance;
   21d0c:	e0bffe17 	ldw	r2,-8(fp)
   21d10:	e0ff9217 	ldw	r3,-440(fp)
   21d14:	10c00115 	stw	r3,4(r2)
							ball->seen = TRUE;
   21d18:	e0bffe17 	ldw	r2,-8(fp)
   21d1c:	00c00044 	movi	r3,1
   21d20:	10c00415 	stw	r3,16(r2)
							fprintf(fp, "c/r/%i/!\n", distance);
   21d24:	e1bf9217 	ldw	r6,-440(fp)
   21d28:	014000f4 	movhi	r5,3
   21d2c:	295b2f04 	addi	r5,r5,27836
   21d30:	e13fff17 	ldw	r4,-4(fp)
   21d34:	00272d40 	call	272d4 <fprintf>
							return TRUE;
   21d38:	00800044 	movi	r2,1
   21d3c:	0004bd06 	br	23034 <go_towards+0x15dc>
						}
					}
				}
    	   	}else if (verilog_word == EEE_IMGPROC_MSG_START_G){
   21d40:	e0ff9617 	ldw	r3,-424(fp)
   21d44:	008011f4 	movhi	r2,71
   21d48:	10909084 	addi	r2,r2,16962
   21d4c:	1880351e 	bne	r3,r2,21e24 <go_towards+0x3cc>
				int g_topleft = IORD(EEE_IMGPROC_0_BASE,EEE_IMGPROC_MSG); // Grab the next word (top left coordinate)
   21d50:	00800134 	movhi	r2,4
   21d54:	10840904 	addi	r2,r2,4132
   21d58:	10800037 	ldwio	r2,0(r2)
   21d5c:	e0bf9715 	stw	r2,-420(fp)
				int g_bottomright = IORD(EEE_IMGPROC_0_BASE,EEE_IMGPROC_MSG); // Grab the next word (bottom right coordinate)
   21d60:	00800134 	movhi	r2,4
   21d64:	10840904 	addi	r2,r2,4132
   21d68:	10800037 	ldwio	r2,0(r2)
   21d6c:	e0bf9815 	stw	r2,-416(fp)

				int g_left_x = (g_topleft)>>16; // extracting the top 16 bits
   21d70:	e0bf9717 	ldw	r2,-420(fp)
   21d74:	1005d43a 	srai	r2,r2,16
   21d78:	e0bf9915 	stw	r2,-412(fp)
				int g_right_x = (g_bottomright)>>16;
   21d7c:	e0bf9817 	ldw	r2,-416(fp)
   21d80:	1005d43a 	srai	r2,r2,16
   21d84:	e0bf9a15 	stw	r2,-408(fp)
				int g_left_y = (g_topleft & 0x0000ffff);
   21d88:	e0bf9717 	ldw	r2,-420(fp)
   21d8c:	10bfffcc 	andi	r2,r2,65535
   21d90:	e0bf9b15 	stw	r2,-404(fp)
				int g_right_y = (g_bottomright & 0x0000ffff);
   21d94:	e0bf9817 	ldw	r2,-416(fp)
   21d98:	10bfffcc 	andi	r2,r2,65535
   21d9c:	e0bf9c15 	stw	r2,-400(fp)

				if(is_ball(g_left_x, g_right_x, g_left_y, g_right_y) && is_in_centre_range(g_left_x, g_right_x)){
   21da0:	e1ff9c17 	ldw	r7,-400(fp)
   21da4:	e1bf9b17 	ldw	r6,-404(fp)
   21da8:	e17f9a17 	ldw	r5,-408(fp)
   21dac:	e13f9917 	ldw	r4,-412(fp)
   21db0:	00217280 	call	21728 <is_ball>
   21db4:	103f3b26 	beq	r2,zero,21aa4 <_gp+0xfffdff7c>
   21db8:	e17f9a17 	ldw	r5,-408(fp)
   21dbc:	e13f9917 	ldw	r4,-412(fp)
   21dc0:	00218900 	call	21890 <is_in_centre_range>
   21dc4:	103f3726 	beq	r2,zero,21aa4 <_gp+0xfffdff7c>
					distance = distance_calc(g_left_x, g_right_x, g_left_y, g_right_y);
   21dc8:	e1ff9c17 	ldw	r7,-400(fp)
   21dcc:	e1bf9b17 	ldw	r6,-404(fp)
   21dd0:	e17f9a17 	ldw	r5,-408(fp)
   21dd4:	e13f9917 	ldw	r4,-412(fp)
   21dd8:	002197c0 	call	2197c <distance_calc>
   21ddc:	e0bf9215 	stw	r2,-440(fp)
					if (distance < 40 && distance > 20){
   21de0:	e0bf9217 	ldw	r2,-440(fp)
   21de4:	10800a08 	cmpgei	r2,r2,40
   21de8:	103f2e1e 	bne	r2,zero,21aa4 <_gp+0xfffdff7c>
   21dec:	e0bf9217 	ldw	r2,-440(fp)
   21df0:	10800550 	cmplti	r2,r2,21
   21df4:	103f2b1e 	bne	r2,zero,21aa4 <_gp+0xfffdff7c>
						printf("Facing obstacle green\n");
   21df8:	010000f4 	movhi	r4,3
   21dfc:	211b3204 	addi	r4,r4,27848
   21e00:	0028c4c0 	call	28c4c <puts>
						// Update members
						fprintf(fp, "v0s!\n");
   21e04:	e1ffff17 	ldw	r7,-4(fp)
   21e08:	01800144 	movi	r6,5
   21e0c:	01400044 	movi	r5,1
   21e10:	010000f4 	movhi	r4,3
   21e14:	211b2d04 	addi	r4,r4,27828
   21e18:	0027e5c0 	call	27e5c <fwrite>
						return TRUE;
   21e1c:	00800044 	movi	r2,1
   21e20:	00048406 	br	23034 <go_towards+0x15dc>
					}
				}
			}else if (verilog_word == EEE_IMGPROC_MSG_START_B){
   21e24:	e0ff9617 	ldw	r3,-424(fp)
   21e28:	008010b4 	movhi	r2,66
   21e2c:	10909084 	addi	r2,r2,16962
   21e30:	1880351e 	bne	r3,r2,21f08 <go_towards+0x4b0>
				int b_topleft = IORD(EEE_IMGPROC_0_BASE,EEE_IMGPROC_MSG); // Grab the next word (top left coordinate)
   21e34:	00800134 	movhi	r2,4
   21e38:	10840904 	addi	r2,r2,4132
   21e3c:	10800037 	ldwio	r2,0(r2)
   21e40:	e0bf9d15 	stw	r2,-396(fp)
				int b_bottomright = IORD(EEE_IMGPROC_0_BASE,EEE_IMGPROC_MSG); // Grab the next word (bottom right coordinate)
   21e44:	00800134 	movhi	r2,4
   21e48:	10840904 	addi	r2,r2,4132
   21e4c:	10800037 	ldwio	r2,0(r2)
   21e50:	e0bf9e15 	stw	r2,-392(fp)

				int b_left_x = (b_topleft)>>16; // extracting the top 16 bits
   21e54:	e0bf9d17 	ldw	r2,-396(fp)
   21e58:	1005d43a 	srai	r2,r2,16
   21e5c:	e0bf9f15 	stw	r2,-388(fp)
				int b_right_x = (b_bottomright)>>16;
   21e60:	e0bf9e17 	ldw	r2,-392(fp)
   21e64:	1005d43a 	srai	r2,r2,16
   21e68:	e0bfa015 	stw	r2,-384(fp)
				int b_left_y = (b_topleft & 0x0000ffff);
   21e6c:	e0bf9d17 	ldw	r2,-396(fp)
   21e70:	10bfffcc 	andi	r2,r2,65535
   21e74:	e0bfa115 	stw	r2,-380(fp)
				int b_right_y = (b_bottomright & 0x0000ffff);
   21e78:	e0bf9e17 	ldw	r2,-392(fp)
   21e7c:	10bfffcc 	andi	r2,r2,65535
   21e80:	e0bfa215 	stw	r2,-376(fp)

				if(is_ball(b_left_x, b_right_x, b_left_y, b_right_y) && is_in_centre_range(b_left_x, b_right_x)){
   21e84:	e1ffa217 	ldw	r7,-376(fp)
   21e88:	e1bfa117 	ldw	r6,-380(fp)
   21e8c:	e17fa017 	ldw	r5,-384(fp)
   21e90:	e13f9f17 	ldw	r4,-388(fp)
   21e94:	00217280 	call	21728 <is_ball>
   21e98:	103f0226 	beq	r2,zero,21aa4 <_gp+0xfffdff7c>
   21e9c:	e17fa017 	ldw	r5,-384(fp)
   21ea0:	e13f9f17 	ldw	r4,-388(fp)
   21ea4:	00218900 	call	21890 <is_in_centre_range>
   21ea8:	103efe26 	beq	r2,zero,21aa4 <_gp+0xfffdff7c>
					distance = distance_calc(b_left_x, b_right_x, b_left_y, b_right_y);
   21eac:	e1ffa217 	ldw	r7,-376(fp)
   21eb0:	e1bfa117 	ldw	r6,-380(fp)
   21eb4:	e17fa017 	ldw	r5,-384(fp)
   21eb8:	e13f9f17 	ldw	r4,-388(fp)
   21ebc:	002197c0 	call	2197c <distance_calc>
   21ec0:	e0bf9215 	stw	r2,-440(fp)
					if (distance < 40 && distance > 20){
   21ec4:	e0bf9217 	ldw	r2,-440(fp)
   21ec8:	10800a08 	cmpgei	r2,r2,40
   21ecc:	103ef51e 	bne	r2,zero,21aa4 <_gp+0xfffdff7c>
   21ed0:	e0bf9217 	ldw	r2,-440(fp)
   21ed4:	10800550 	cmplti	r2,r2,21
   21ed8:	103ef21e 	bne	r2,zero,21aa4 <_gp+0xfffdff7c>
						printf("Facing obstacle blue\n");
   21edc:	010000f4 	movhi	r4,3
   21ee0:	211b3804 	addi	r4,r4,27872
   21ee4:	0028c4c0 	call	28c4c <puts>
						// Update members
						fprintf(fp, "v0s!\n");
   21ee8:	e1ffff17 	ldw	r7,-4(fp)
   21eec:	01800144 	movi	r6,5
   21ef0:	01400044 	movi	r5,1
   21ef4:	010000f4 	movhi	r4,3
   21ef8:	211b2d04 	addi	r4,r4,27828
   21efc:	0027e5c0 	call	27e5c <fwrite>
						return TRUE;
   21f00:	00800044 	movi	r2,1
   21f04:	00044b06 	br	23034 <go_towards+0x15dc>
					}
				}
			}else if (verilog_word == EEE_IMGPROC_MSG_START_Y){
   21f08:	e0ff9617 	ldw	r3,-424(fp)
   21f0c:	00801674 	movhi	r2,89
   21f10:	10909084 	addi	r2,r2,16962
   21f14:	18bee31e 	bne	r3,r2,21aa4 <_gp+0xfffdff7c>
				int y_topleft = IORD(EEE_IMGPROC_0_BASE,EEE_IMGPROC_MSG); // Grab the next word (top left coordinate)
   21f18:	00800134 	movhi	r2,4
   21f1c:	10840904 	addi	r2,r2,4132
   21f20:	10800037 	ldwio	r2,0(r2)
   21f24:	e0bfa315 	stw	r2,-372(fp)
				int y_bottomright = IORD(EEE_IMGPROC_0_BASE,EEE_IMGPROC_MSG); // Grab the next word (bottom right coordinate)
   21f28:	00800134 	movhi	r2,4
   21f2c:	10840904 	addi	r2,r2,4132
   21f30:	10800037 	ldwio	r2,0(r2)
   21f34:	e0bfa415 	stw	r2,-368(fp)

				int y_left_x = (y_topleft)>>16; // extracting the top 16 bits
   21f38:	e0bfa317 	ldw	r2,-372(fp)
   21f3c:	1005d43a 	srai	r2,r2,16
   21f40:	e0bfa515 	stw	r2,-364(fp)
				int y_right_x = (y_bottomright)>>16;
   21f44:	e0bfa417 	ldw	r2,-368(fp)
   21f48:	1005d43a 	srai	r2,r2,16
   21f4c:	e0bfa615 	stw	r2,-360(fp)
				int y_left_y = (y_topleft & 0x0000ffff);
   21f50:	e0bfa317 	ldw	r2,-372(fp)
   21f54:	10bfffcc 	andi	r2,r2,65535
   21f58:	e0bfa715 	stw	r2,-356(fp)
				int y_right_y = (y_bottomright & 0x0000ffff);
   21f5c:	e0bfa417 	ldw	r2,-368(fp)
   21f60:	10bfffcc 	andi	r2,r2,65535
   21f64:	e0bfa815 	stw	r2,-352(fp)

				if(is_ball(y_left_x, y_right_x, y_left_y, y_right_y) && is_in_centre_range(y_left_x, y_right_x)){
   21f68:	e1ffa817 	ldw	r7,-352(fp)
   21f6c:	e1bfa717 	ldw	r6,-356(fp)
   21f70:	e17fa617 	ldw	r5,-360(fp)
   21f74:	e13fa517 	ldw	r4,-364(fp)
   21f78:	00217280 	call	21728 <is_ball>
   21f7c:	103ec926 	beq	r2,zero,21aa4 <_gp+0xfffdff7c>
   21f80:	e17fa617 	ldw	r5,-360(fp)
   21f84:	e13fa517 	ldw	r4,-364(fp)
   21f88:	00218900 	call	21890 <is_in_centre_range>
   21f8c:	103ec526 	beq	r2,zero,21aa4 <_gp+0xfffdff7c>
					distance = distance_calc(y_left_x, y_right_x, y_left_y, y_right_y);
   21f90:	e1ffa817 	ldw	r7,-352(fp)
   21f94:	e1bfa717 	ldw	r6,-356(fp)
   21f98:	e17fa617 	ldw	r5,-360(fp)
   21f9c:	e13fa517 	ldw	r4,-364(fp)
   21fa0:	002197c0 	call	2197c <distance_calc>
   21fa4:	e0bf9215 	stw	r2,-440(fp)
					if (distance < 40 && distance > 20){
   21fa8:	e0bf9217 	ldw	r2,-440(fp)
   21fac:	10800a08 	cmpgei	r2,r2,40
   21fb0:	103ebc1e 	bne	r2,zero,21aa4 <_gp+0xfffdff7c>
   21fb4:	e0bf9217 	ldw	r2,-440(fp)
   21fb8:	10800550 	cmplti	r2,r2,21
   21fbc:	103eb91e 	bne	r2,zero,21aa4 <_gp+0xfffdff7c>
						printf("Facing obstacle yellow\n");
   21fc0:	010000f4 	movhi	r4,3
   21fc4:	211b3e04 	addi	r4,r4,27896
   21fc8:	0028c4c0 	call	28c4c <puts>
						// Update members
						fprintf(fp, "v0s!\n");
   21fcc:	e1ffff17 	ldw	r7,-4(fp)
   21fd0:	01800144 	movi	r6,5
   21fd4:	01400044 	movi	r5,1
   21fd8:	010000f4 	movhi	r4,3
   21fdc:	211b2d04 	addi	r4,r4,27828
   21fe0:	0027e5c0 	call	27e5c <fwrite>
						return TRUE;
   21fe4:	00800044 	movi	r2,1
   21fe8:	00041206 	br	23034 <go_towards+0x15dc>
					}
				}
			}
    		//}
		}
	}else if(ball->colour == 'G'){
   21fec:	e0bffe17 	ldw	r2,-8(fp)
   21ff0:	10800003 	ldbu	r2,0(r2)
   21ff4:	10803fcc 	andi	r2,r2,255
   21ff8:	1080201c 	xori	r2,r2,128
   21ffc:	10bfe004 	addi	r2,r2,-128
   22000:	108011d8 	cmpnei	r2,r2,71
   22004:	1001531e 	bne	r2,zero,22554 <go_towards+0xafc>
		printf("Going towards green\n");
   22008:	010000f4 	movhi	r4,3
   2200c:	211b4404 	addi	r4,r4,27920
   22010:	0028c4c0 	call	28c4c <puts>
		while (1) {
            fflush(fp);
   22014:	e13fff17 	ldw	r4,-4(fp)
   22018:	0026dd00 	call	26dd0 <fflush>
			// Update the boundary box co-ordinates
			int verilog_word = IORD(EEE_IMGPROC_0_BASE,EEE_IMGPROC_MSG);
   2201c:	00800134 	movhi	r2,4
   22020:	10840904 	addi	r2,r2,4132
   22024:	10800037 	ldwio	r2,0(r2)
   22028:	e0bfb015 	stw	r2,-320(fp)
			if (verilog_word == EEE_IMGPROC_MSG_START_R){
   2202c:	e0ffb017 	ldw	r3,-320(fp)
   22030:	008014b4 	movhi	r2,82
   22034:	10909084 	addi	r2,r2,16962
   22038:	1880351e 	bne	r3,r2,22110 <go_towards+0x6b8>
				int r_topleft = IORD(EEE_IMGPROC_0_BASE,EEE_IMGPROC_MSG); // Grab the next word (top left coordinate)
   2203c:	00800134 	movhi	r2,4
   22040:	10840904 	addi	r2,r2,4132
   22044:	10800037 	ldwio	r2,0(r2)
   22048:	e0bfc415 	stw	r2,-240(fp)
				int r_bottomright = IORD(EEE_IMGPROC_0_BASE,EEE_IMGPROC_MSG); // Grab the next word (bottom right coordinate)
   2204c:	00800134 	movhi	r2,4
   22050:	10840904 	addi	r2,r2,4132
   22054:	10800037 	ldwio	r2,0(r2)
   22058:	e0bfc515 	stw	r2,-236(fp)

				int r_left_x = (r_topleft)>>16; // extracting the top 16 bits
   2205c:	e0bfc417 	ldw	r2,-240(fp)
   22060:	1005d43a 	srai	r2,r2,16
   22064:	e0bfc615 	stw	r2,-232(fp)
				int r_right_x = (r_bottomright)>>16;
   22068:	e0bfc517 	ldw	r2,-236(fp)
   2206c:	1005d43a 	srai	r2,r2,16
   22070:	e0bfc715 	stw	r2,-228(fp)
				int r_left_y = (r_topleft & 0x0000ffff);
   22074:	e0bfc417 	ldw	r2,-240(fp)
   22078:	10bfffcc 	andi	r2,r2,65535
   2207c:	e0bfc815 	stw	r2,-224(fp)
				int r_right_y = (r_bottomright & 0x0000ffff);
   22080:	e0bfc517 	ldw	r2,-236(fp)
   22084:	10bfffcc 	andi	r2,r2,65535
   22088:	e0bfc915 	stw	r2,-220(fp)

				if(is_ball(r_left_x, r_right_x, r_left_y, r_right_y) && is_in_centre_range(r_left_x, r_right_x)){
   2208c:	e1ffc917 	ldw	r7,-220(fp)
   22090:	e1bfc817 	ldw	r6,-224(fp)
   22094:	e17fc717 	ldw	r5,-228(fp)
   22098:	e13fc617 	ldw	r4,-232(fp)
   2209c:	00217280 	call	21728 <is_ball>
   220a0:	103fdc26 	beq	r2,zero,22014 <_gp+0xfffe04ec>
   220a4:	e17fc717 	ldw	r5,-228(fp)
   220a8:	e13fc617 	ldw	r4,-232(fp)
   220ac:	00218900 	call	21890 <is_in_centre_range>
   220b0:	103fd826 	beq	r2,zero,22014 <_gp+0xfffe04ec>
					distance = distance_calc(r_left_x, r_right_x, r_left_y, r_right_y);
   220b4:	e1ffc917 	ldw	r7,-220(fp)
   220b8:	e1bfc817 	ldw	r6,-224(fp)
   220bc:	e17fc717 	ldw	r5,-228(fp)
   220c0:	e13fc617 	ldw	r4,-232(fp)
   220c4:	002197c0 	call	2197c <distance_calc>
   220c8:	e0bf9215 	stw	r2,-440(fp)
					if (distance < 40 && distance > 20){
   220cc:	e0bf9217 	ldw	r2,-440(fp)
   220d0:	10800a08 	cmpgei	r2,r2,40
   220d4:	103fcf1e 	bne	r2,zero,22014 <_gp+0xfffe04ec>
   220d8:	e0bf9217 	ldw	r2,-440(fp)
   220dc:	10800550 	cmplti	r2,r2,21
   220e0:	103fcc1e 	bne	r2,zero,22014 <_gp+0xfffe04ec>
						printf("Facing obstacle red\n");
   220e4:	010000f4 	movhi	r4,3
   220e8:	211b4904 	addi	r4,r4,27940
   220ec:	0028c4c0 	call	28c4c <puts>
						// Update members
						fprintf(fp, "v0s!\n");
   220f0:	e1ffff17 	ldw	r7,-4(fp)
   220f4:	01800144 	movi	r6,5
   220f8:	01400044 	movi	r5,1
   220fc:	010000f4 	movhi	r4,3
   22100:	211b2d04 	addi	r4,r4,27828
   22104:	0027e5c0 	call	27e5c <fwrite>
						return TRUE;
   22108:	00800044 	movi	r2,1
   2210c:	0003c906 	br	23034 <go_towards+0x15dc>
					}
				}
			}else if (verilog_word == EEE_IMGPROC_MSG_START_G){ // If the incoming string == RBB
   22110:	e0ffb017 	ldw	r3,-320(fp)
   22114:	008011f4 	movhi	r2,71
   22118:	10909084 	addi	r2,r2,16962
   2211c:	18809b1e 	bne	r3,r2,2238c <go_towards+0x934>
				int g_topleft = IORD(EEE_IMGPROC_0_BASE,EEE_IMGPROC_MSG); // Grab the next word (top left coordinate)
   22120:	00800134 	movhi	r2,4
   22124:	10840904 	addi	r2,r2,4132
   22128:	10800037 	ldwio	r2,0(r2)
   2212c:	e0bfb115 	stw	r2,-316(fp)
				int g_bottomright = IORD(EEE_IMGPROC_0_BASE,EEE_IMGPROC_MSG); // Grab the next word (bottom right coordinate)
   22130:	00800134 	movhi	r2,4
   22134:	10840904 	addi	r2,r2,4132
   22138:	10800037 	ldwio	r2,0(r2)
   2213c:	e0bfb215 	stw	r2,-312(fp)

				int g_left_x = (g_topleft)>>16; // extracting the top 16 bits
   22140:	e0bfb117 	ldw	r2,-316(fp)
   22144:	1005d43a 	srai	r2,r2,16
   22148:	e0bfb315 	stw	r2,-308(fp)
				int g_right_x = (g_bottomright)>>16;
   2214c:	e0bfb217 	ldw	r2,-312(fp)
   22150:	1005d43a 	srai	r2,r2,16
   22154:	e0bfb415 	stw	r2,-304(fp)
				int g_left_y = (g_topleft & 0x0000ffff);
   22158:	e0bfb117 	ldw	r2,-316(fp)
   2215c:	10bfffcc 	andi	r2,r2,65535
   22160:	e0bfb515 	stw	r2,-300(fp)
				int g_right_y = (g_bottomright & 0x0000ffff);
   22164:	e0bfb217 	ldw	r2,-312(fp)
   22168:	10bfffcc 	andi	r2,r2,65535
   2216c:	e0bfb615 	stw	r2,-296(fp)

                if(is_ball(g_left_x, g_right_x, g_left_y, g_right_y)){
   22170:	e1ffb617 	ldw	r7,-296(fp)
   22174:	e1bfb517 	ldw	r6,-300(fp)
   22178:	e17fb417 	ldw	r5,-304(fp)
   2217c:	e13fb317 	ldw	r4,-308(fp)
   22180:	00217280 	call	21728 <is_ball>
   22184:	103fa326 	beq	r2,zero,22014 <_gp+0xfffe04ec>
                    // Measure angle and correct if needed to
                    int middle_pix = (g_right_x + g_left_x) / 2;
   22188:	e0ffb417 	ldw	r3,-304(fp)
   2218c:	e0bfb317 	ldw	r2,-308(fp)
   22190:	1885883a 	add	r2,r3,r2
   22194:	1006d7fa 	srli	r3,r2,31
   22198:	1885883a 	add	r2,r3,r2
   2219c:	1005d07a 	srai	r2,r2,1
   221a0:	e0bfb715 	stw	r2,-292(fp)
                    if (middle_pix < 240 && s1 == 0){
   221a4:	e0bfb717 	ldw	r2,-292(fp)
   221a8:	10803c08 	cmpgei	r2,r2,240
   221ac:	1000101e 	bne	r2,zero,221f0 <go_towards+0x798>
   221b0:	e0bf9317 	ldw	r2,-436(fp)
   221b4:	10000e1e 	bne	r2,zero,221f0 <go_towards+0x798>
                        fprintf(fp, "v0l!\n");
   221b8:	e1ffff17 	ldw	r7,-4(fp)
   221bc:	01800144 	movi	r6,5
   221c0:	01400044 	movi	r5,1
   221c4:	010000f4 	movhi	r4,3
   221c8:	211b0a04 	addi	r4,r4,27688
   221cc:	0027e5c0 	call	27e5c <fwrite>
                        printf("g : turn left\n");
   221d0:	010000f4 	movhi	r4,3
   221d4:	211b4e04 	addi	r4,r4,27960
   221d8:	0028c4c0 	call	28c4c <puts>
                        s1 = 1;
   221dc:	00800044 	movi	r2,1
   221e0:	e0bf9315 	stw	r2,-436(fp)
						s2 = 0;
   221e4:	e03f9415 	stw	zero,-432(fp)
						s3 = 0;
   221e8:	e03f9515 	stw	zero,-428(fp)
   221ec:	00003106 	br	222b4 <go_towards+0x85c>
                    }else if(middle_pix > 400 && s2 == 0){
   221f0:	e0bfb717 	ldw	r2,-292(fp)
   221f4:	10806450 	cmplti	r2,r2,401
   221f8:	1000101e 	bne	r2,zero,2223c <go_towards+0x7e4>
   221fc:	e0bf9417 	ldw	r2,-432(fp)
   22200:	10000e1e 	bne	r2,zero,2223c <go_towards+0x7e4>
                        fprintf(fp, "v0r!\n");
   22204:	e1ffff17 	ldw	r7,-4(fp)
   22208:	01800144 	movi	r6,5
   2220c:	01400044 	movi	r5,1
   22210:	010000f4 	movhi	r4,3
   22214:	211b1004 	addi	r4,r4,27712
   22218:	0027e5c0 	call	27e5c <fwrite>
                        printf("g : turn right\n");
   2221c:	010000f4 	movhi	r4,3
   22220:	211b5204 	addi	r4,r4,27976
   22224:	0028c4c0 	call	28c4c <puts>
                        s1 = 0;
   22228:	e03f9315 	stw	zero,-436(fp)
						s2 = 1;
   2222c:	00800044 	movi	r2,1
   22230:	e0bf9415 	stw	r2,-432(fp)
						s3 = 0;
   22234:	e03f9515 	stw	zero,-428(fp)
   22238:	00001e06 	br	222b4 <go_towards+0x85c>
                    }else if (middle_pix <= 400 && middle_pix >= 240 && s3 == 0){
   2223c:	e0bfb717 	ldw	r2,-292(fp)
   22240:	10806448 	cmpgei	r2,r2,401
   22244:	1000131e 	bne	r2,zero,22294 <go_towards+0x83c>
   22248:	e0bfb717 	ldw	r2,-292(fp)
   2224c:	10803c10 	cmplti	r2,r2,240
   22250:	1000101e 	bne	r2,zero,22294 <go_towards+0x83c>
   22254:	e0bf9517 	ldw	r2,-428(fp)
   22258:	10000e1e 	bne	r2,zero,22294 <go_towards+0x83c>
                        fprintf(fp, "v0g!\n");
   2225c:	e1ffff17 	ldw	r7,-4(fp)
   22260:	01800144 	movi	r6,5
   22264:	01400044 	movi	r5,1
   22268:	010000f4 	movhi	r4,3
   2226c:	211b1604 	addi	r4,r4,27736
   22270:	0027e5c0 	call	27e5c <fwrite>
                        printf("g : go forward\n");
   22274:	010000f4 	movhi	r4,3
   22278:	211b5604 	addi	r4,r4,27992
   2227c:	0028c4c0 	call	28c4c <puts>
                        s1 = 0;
   22280:	e03f9315 	stw	zero,-436(fp)
						s2 = 0;
   22284:	e03f9415 	stw	zero,-432(fp)
						s3 = 1;
   22288:	00800044 	movi	r2,1
   2228c:	e0bf9515 	stw	r2,-428(fp)
   22290:	00000806 	br	222b4 <go_towards+0x85c>
					}else if(g_right_x >= 639 && g_left_x == 0){
   22294:	e0bfb417 	ldw	r2,-304(fp)
   22298:	10809fd0 	cmplti	r2,r2,639
   2229c:	1000051e 	bne	r2,zero,222b4 <go_towards+0x85c>
   222a0:	e0bfb317 	ldw	r2,-308(fp)
   222a4:	1000031e 	bne	r2,zero,222b4 <go_towards+0x85c>
						printf("Out of vision\n");
   222a8:	010000f4 	movhi	r4,3
   222ac:	211b1c04 	addi	r4,r4,27760
   222b0:	0028c4c0 	call	28c4c <puts>
					}

                    // If we can make a valid decision measurement, make it
                    if(is_ball(g_left_x, g_right_x, g_left_y, g_right_y) && middle_pix <= 440 && middle_pix >= 200){
   222b4:	e1ffb617 	ldw	r7,-296(fp)
   222b8:	e1bfb517 	ldw	r6,-300(fp)
   222bc:	e17fb417 	ldw	r5,-304(fp)
   222c0:	e13fb317 	ldw	r4,-308(fp)
   222c4:	00217280 	call	21728 <is_ball>
   222c8:	103f5226 	beq	r2,zero,22014 <_gp+0xfffe04ec>
   222cc:	e0bfb717 	ldw	r2,-292(fp)
   222d0:	10806e48 	cmpgei	r2,r2,441
   222d4:	103f4f1e 	bne	r2,zero,22014 <_gp+0xfffe04ec>
   222d8:	e0bfb717 	ldw	r2,-292(fp)
   222dc:	10803210 	cmplti	r2,r2,200
   222e0:	103f4c1e 	bne	r2,zero,22014 <_gp+0xfffe04ec>
						printf("Is ball and is centred\n", distance);
   222e4:	e17f9217 	ldw	r5,-440(fp)
   222e8:	010000f4 	movhi	r4,3
   222ec:	211b5a04 	addi	r4,r4,28008
   222f0:	0028b300 	call	28b30 <printf>
                        distance = distance_calc(g_left_x, g_right_x, g_left_y, g_right_y);
   222f4:	e1ffb617 	ldw	r7,-296(fp)
   222f8:	e1bfb517 	ldw	r6,-300(fp)
   222fc:	e17fb417 	ldw	r5,-304(fp)
   22300:	e13fb317 	ldw	r4,-308(fp)
   22304:	002197c0 	call	2197c <distance_calc>
   22308:	e0bf9215 	stw	r2,-440(fp)
						printf("Distance : %i\n", distance);
   2230c:	e17f9217 	ldw	r5,-440(fp)
   22310:	010000f4 	movhi	r4,3
   22314:	211b2604 	addi	r4,r4,27800
   22318:	0028b300 	call	28b30 <printf>
                        if (distance < 80 && distance > 25){
   2231c:	e0bf9217 	ldw	r2,-440(fp)
   22320:	10801408 	cmpgei	r2,r2,80
   22324:	103f3b1e 	bne	r2,zero,22014 <_gp+0xfffe04ec>
   22328:	e0bf9217 	ldw	r2,-440(fp)
   2232c:	10800690 	cmplti	r2,r2,26
   22330:	103f381e 	bne	r2,zero,22014 <_gp+0xfffe04ec>
                            printf("Reached green\n");
   22334:	010000f4 	movhi	r4,3
   22338:	211b6004 	addi	r4,r4,28032
   2233c:	0028c4c0 	call	28c4c <puts>
                            // Update members
                            fprintf(fp, "v0s!\n");
   22340:	e1ffff17 	ldw	r7,-4(fp)
   22344:	01800144 	movi	r6,5
   22348:	01400044 	movi	r5,1
   2234c:	010000f4 	movhi	r4,3
   22350:	211b2d04 	addi	r4,r4,27828
   22354:	0027e5c0 	call	27e5c <fwrite>
                            ball->distance = distance;
   22358:	e0bffe17 	ldw	r2,-8(fp)
   2235c:	e0ff9217 	ldw	r3,-440(fp)
   22360:	10c00115 	stw	r3,4(r2)
                            ball->seen = TRUE;
   22364:	e0bffe17 	ldw	r2,-8(fp)
   22368:	00c00044 	movi	r3,1
   2236c:	10c00415 	stw	r3,16(r2)
                            fprintf(fp, "c/g/%i/!\n", distance);
   22370:	e1bf9217 	ldw	r6,-440(fp)
   22374:	014000f4 	movhi	r5,3
   22378:	295b6404 	addi	r5,r5,28048
   2237c:	e13fff17 	ldw	r4,-4(fp)
   22380:	00272d40 	call	272d4 <fprintf>
                            return TRUE;
   22384:	00800044 	movi	r2,1
   22388:	00032a06 	br	23034 <go_towards+0x15dc>
                        }
                    }
                }
    	   	} else if (verilog_word == EEE_IMGPROC_MSG_START_B){
   2238c:	e0ffb017 	ldw	r3,-320(fp)
   22390:	008010b4 	movhi	r2,66
   22394:	10909084 	addi	r2,r2,16962
   22398:	1880351e 	bne	r3,r2,22470 <go_towards+0xa18>
				int b_topleft = IORD(EEE_IMGPROC_0_BASE,EEE_IMGPROC_MSG); // Grab the next word (top left coordinate)
   2239c:	00800134 	movhi	r2,4
   223a0:	10840904 	addi	r2,r2,4132
   223a4:	10800037 	ldwio	r2,0(r2)
   223a8:	e0bfb815 	stw	r2,-288(fp)
				int b_bottomright = IORD(EEE_IMGPROC_0_BASE,EEE_IMGPROC_MSG); // Grab the next word (bottom right coordinate)
   223ac:	00800134 	movhi	r2,4
   223b0:	10840904 	addi	r2,r2,4132
   223b4:	10800037 	ldwio	r2,0(r2)
   223b8:	e0bfb915 	stw	r2,-284(fp)

				int b_left_x = (b_topleft)>>16; // extracting the top 16 bits
   223bc:	e0bfb817 	ldw	r2,-288(fp)
   223c0:	1005d43a 	srai	r2,r2,16
   223c4:	e0bfba15 	stw	r2,-280(fp)
				int b_right_x = (b_bottomright)>>16;
   223c8:	e0bfb917 	ldw	r2,-284(fp)
   223cc:	1005d43a 	srai	r2,r2,16
   223d0:	e0bfbb15 	stw	r2,-276(fp)
				int b_left_y = (b_topleft & 0x0000ffff);
   223d4:	e0bfb817 	ldw	r2,-288(fp)
   223d8:	10bfffcc 	andi	r2,r2,65535
   223dc:	e0bfbc15 	stw	r2,-272(fp)
				int b_right_y = (b_bottomright & 0x0000ffff);
   223e0:	e0bfb917 	ldw	r2,-284(fp)
   223e4:	10bfffcc 	andi	r2,r2,65535
   223e8:	e0bfbd15 	stw	r2,-268(fp)

				if(is_ball(b_left_x, b_right_x, b_left_y, b_right_y) && is_in_centre_range(b_left_x, b_right_x)){
   223ec:	e1ffbd17 	ldw	r7,-268(fp)
   223f0:	e1bfbc17 	ldw	r6,-272(fp)
   223f4:	e17fbb17 	ldw	r5,-276(fp)
   223f8:	e13fba17 	ldw	r4,-280(fp)
   223fc:	00217280 	call	21728 <is_ball>
   22400:	103f0426 	beq	r2,zero,22014 <_gp+0xfffe04ec>
   22404:	e17fbb17 	ldw	r5,-276(fp)
   22408:	e13fba17 	ldw	r4,-280(fp)
   2240c:	00218900 	call	21890 <is_in_centre_range>
   22410:	103f0026 	beq	r2,zero,22014 <_gp+0xfffe04ec>
					distance = distance_calc(b_left_x, b_right_x, b_left_y, b_right_y);
   22414:	e1ffbd17 	ldw	r7,-268(fp)
   22418:	e1bfbc17 	ldw	r6,-272(fp)
   2241c:	e17fbb17 	ldw	r5,-276(fp)
   22420:	e13fba17 	ldw	r4,-280(fp)
   22424:	002197c0 	call	2197c <distance_calc>
   22428:	e0bf9215 	stw	r2,-440(fp)
					if (distance < 40 && distance > 20){
   2242c:	e0bf9217 	ldw	r2,-440(fp)
   22430:	10800a08 	cmpgei	r2,r2,40
   22434:	103ef71e 	bne	r2,zero,22014 <_gp+0xfffe04ec>
   22438:	e0bf9217 	ldw	r2,-440(fp)
   2243c:	10800550 	cmplti	r2,r2,21
   22440:	103ef41e 	bne	r2,zero,22014 <_gp+0xfffe04ec>
						printf("Facing obstacle blue\n");
   22444:	010000f4 	movhi	r4,3
   22448:	211b3804 	addi	r4,r4,27872
   2244c:	0028c4c0 	call	28c4c <puts>
						// Update members
						fprintf(fp, "v0s!\n");
   22450:	e1ffff17 	ldw	r7,-4(fp)
   22454:	01800144 	movi	r6,5
   22458:	01400044 	movi	r5,1
   2245c:	010000f4 	movhi	r4,3
   22460:	211b2d04 	addi	r4,r4,27828
   22464:	0027e5c0 	call	27e5c <fwrite>
						return TRUE;
   22468:	00800044 	movi	r2,1
   2246c:	0002f106 	br	23034 <go_towards+0x15dc>
					}
				}
			}else if (verilog_word == EEE_IMGPROC_MSG_START_Y){
   22470:	e0ffb017 	ldw	r3,-320(fp)
   22474:	00801674 	movhi	r2,89
   22478:	10909084 	addi	r2,r2,16962
   2247c:	18bee51e 	bne	r3,r2,22014 <_gp+0xfffe04ec>
				int y_topleft = IORD(EEE_IMGPROC_0_BASE,EEE_IMGPROC_MSG); // Grab the next word (top left coordinate)
   22480:	00800134 	movhi	r2,4
   22484:	10840904 	addi	r2,r2,4132
   22488:	10800037 	ldwio	r2,0(r2)
   2248c:	e0bfbe15 	stw	r2,-264(fp)
				int y_bottomright = IORD(EEE_IMGPROC_0_BASE,EEE_IMGPROC_MSG); // Grab the next word (bottom right coordinate)
   22490:	00800134 	movhi	r2,4
   22494:	10840904 	addi	r2,r2,4132
   22498:	10800037 	ldwio	r2,0(r2)
   2249c:	e0bfbf15 	stw	r2,-260(fp)

				int y_left_x = (y_topleft)>>16; // extracting the top 16 bits
   224a0:	e0bfbe17 	ldw	r2,-264(fp)
   224a4:	1005d43a 	srai	r2,r2,16
   224a8:	e0bfc015 	stw	r2,-256(fp)
				int y_right_x = (y_bottomright)>>16;
   224ac:	e0bfbf17 	ldw	r2,-260(fp)
   224b0:	1005d43a 	srai	r2,r2,16
   224b4:	e0bfc115 	stw	r2,-252(fp)
				int y_left_y = (y_topleft & 0x0000ffff);
   224b8:	e0bfbe17 	ldw	r2,-264(fp)
   224bc:	10bfffcc 	andi	r2,r2,65535
   224c0:	e0bfc215 	stw	r2,-248(fp)
				int y_right_y = (y_bottomright & 0x0000ffff);
   224c4:	e0bfbf17 	ldw	r2,-260(fp)
   224c8:	10bfffcc 	andi	r2,r2,65535
   224cc:	e0bfc315 	stw	r2,-244(fp)

				if(is_ball(y_left_x, y_right_x, y_left_y, y_right_y) && is_in_centre_range(y_left_x, y_right_x)){
   224d0:	e1ffc317 	ldw	r7,-244(fp)
   224d4:	e1bfc217 	ldw	r6,-248(fp)
   224d8:	e17fc117 	ldw	r5,-252(fp)
   224dc:	e13fc017 	ldw	r4,-256(fp)
   224e0:	00217280 	call	21728 <is_ball>
   224e4:	103ecb26 	beq	r2,zero,22014 <_gp+0xfffe04ec>
   224e8:	e17fc117 	ldw	r5,-252(fp)
   224ec:	e13fc017 	ldw	r4,-256(fp)
   224f0:	00218900 	call	21890 <is_in_centre_range>
   224f4:	103ec726 	beq	r2,zero,22014 <_gp+0xfffe04ec>
					distance = distance_calc(y_left_x, y_right_x, y_left_y, y_right_y);
   224f8:	e1ffc317 	ldw	r7,-244(fp)
   224fc:	e1bfc217 	ldw	r6,-248(fp)
   22500:	e17fc117 	ldw	r5,-252(fp)
   22504:	e13fc017 	ldw	r4,-256(fp)
   22508:	002197c0 	call	2197c <distance_calc>
   2250c:	e0bf9215 	stw	r2,-440(fp)
					if (distance < 40 && distance > 20){
   22510:	e0bf9217 	ldw	r2,-440(fp)
   22514:	10800a08 	cmpgei	r2,r2,40
   22518:	103ebe1e 	bne	r2,zero,22014 <_gp+0xfffe04ec>
   2251c:	e0bf9217 	ldw	r2,-440(fp)
   22520:	10800550 	cmplti	r2,r2,21
   22524:	103ebb1e 	bne	r2,zero,22014 <_gp+0xfffe04ec>
						printf("Facing obstacle yellow\n");
   22528:	010000f4 	movhi	r4,3
   2252c:	211b3e04 	addi	r4,r4,27896
   22530:	0028c4c0 	call	28c4c <puts>
						// Update members
						fprintf(fp, "v0s!\n");
   22534:	e1ffff17 	ldw	r7,-4(fp)
   22538:	01800144 	movi	r6,5
   2253c:	01400044 	movi	r5,1
   22540:	010000f4 	movhi	r4,3
   22544:	211b2d04 	addi	r4,r4,27828
   22548:	0027e5c0 	call	27e5c <fwrite>
						return TRUE;
   2254c:	00800044 	movi	r2,1
   22550:	0002b806 	br	23034 <go_towards+0x15dc>
					}
				}
			}
		}
	}else if(ball->colour == 'B'){
   22554:	e0bffe17 	ldw	r2,-8(fp)
   22558:	10800003 	ldbu	r2,0(r2)
   2255c:	10803fcc 	andi	r2,r2,255
   22560:	1080201c 	xori	r2,r2,128
   22564:	10bfe004 	addi	r2,r2,-128
   22568:	10801098 	cmpnei	r2,r2,66
   2256c:	1001531e 	bne	r2,zero,22abc <go_towards+0x1064>
		printf("Going towards blue\n");
   22570:	010000f4 	movhi	r4,3
   22574:	211b6704 	addi	r4,r4,28060
   22578:	0028c4c0 	call	28c4c <puts>
		while (1) {
            fflush(fp);
   2257c:	e13fff17 	ldw	r4,-4(fp)
   22580:	0026dd00 	call	26dd0 <fflush>
			// Update the boundary box co-ordinates
			int verilog_word = IORD(EEE_IMGPROC_0_BASE,EEE_IMGPROC_MSG);
   22584:	00800134 	movhi	r2,4
   22588:	10840904 	addi	r2,r2,4132
   2258c:	10800037 	ldwio	r2,0(r2)
   22590:	e0bfca15 	stw	r2,-216(fp)
			if (verilog_word == EEE_IMGPROC_MSG_START_R){
   22594:	e0ffca17 	ldw	r3,-216(fp)
   22598:	008014b4 	movhi	r2,82
   2259c:	10909084 	addi	r2,r2,16962
   225a0:	1880351e 	bne	r3,r2,22678 <go_towards+0xc20>
				int r_topleft = IORD(EEE_IMGPROC_0_BASE,EEE_IMGPROC_MSG); // Grab the next word (top left coordinate)
   225a4:	00800134 	movhi	r2,4
   225a8:	10840904 	addi	r2,r2,4132
   225ac:	10800037 	ldwio	r2,0(r2)
   225b0:	e0bfde15 	stw	r2,-136(fp)
				int r_bottomright = IORD(EEE_IMGPROC_0_BASE,EEE_IMGPROC_MSG); // Grab the next word (bottom right coordinate)
   225b4:	00800134 	movhi	r2,4
   225b8:	10840904 	addi	r2,r2,4132
   225bc:	10800037 	ldwio	r2,0(r2)
   225c0:	e0bfdf15 	stw	r2,-132(fp)

				int r_left_x = (r_topleft)>>16; // extracting the top 16 bits
   225c4:	e0bfde17 	ldw	r2,-136(fp)
   225c8:	1005d43a 	srai	r2,r2,16
   225cc:	e0bfe015 	stw	r2,-128(fp)
				int r_right_x = (r_bottomright)>>16;
   225d0:	e0bfdf17 	ldw	r2,-132(fp)
   225d4:	1005d43a 	srai	r2,r2,16
   225d8:	e0bfe115 	stw	r2,-124(fp)
				int r_left_y = (r_topleft & 0x0000ffff);
   225dc:	e0bfde17 	ldw	r2,-136(fp)
   225e0:	10bfffcc 	andi	r2,r2,65535
   225e4:	e0bfe215 	stw	r2,-120(fp)
				int r_right_y = (r_bottomright & 0x0000ffff);
   225e8:	e0bfdf17 	ldw	r2,-132(fp)
   225ec:	10bfffcc 	andi	r2,r2,65535
   225f0:	e0bfe315 	stw	r2,-116(fp)

				if(is_ball(r_left_x, r_right_x, r_left_y, r_right_y) && is_in_centre_range(r_left_x, r_right_x)){
   225f4:	e1ffe317 	ldw	r7,-116(fp)
   225f8:	e1bfe217 	ldw	r6,-120(fp)
   225fc:	e17fe117 	ldw	r5,-124(fp)
   22600:	e13fe017 	ldw	r4,-128(fp)
   22604:	00217280 	call	21728 <is_ball>
   22608:	103fdc26 	beq	r2,zero,2257c <_gp+0xfffe0a54>
   2260c:	e17fe117 	ldw	r5,-124(fp)
   22610:	e13fe017 	ldw	r4,-128(fp)
   22614:	00218900 	call	21890 <is_in_centre_range>
   22618:	103fd826 	beq	r2,zero,2257c <_gp+0xfffe0a54>
					distance = distance_calc(r_left_x, r_right_x, r_left_y, r_right_y);
   2261c:	e1ffe317 	ldw	r7,-116(fp)
   22620:	e1bfe217 	ldw	r6,-120(fp)
   22624:	e17fe117 	ldw	r5,-124(fp)
   22628:	e13fe017 	ldw	r4,-128(fp)
   2262c:	002197c0 	call	2197c <distance_calc>
   22630:	e0bf9215 	stw	r2,-440(fp)
					if (distance < 40 && distance > 20){
   22634:	e0bf9217 	ldw	r2,-440(fp)
   22638:	10800a08 	cmpgei	r2,r2,40
   2263c:	103fcf1e 	bne	r2,zero,2257c <_gp+0xfffe0a54>
   22640:	e0bf9217 	ldw	r2,-440(fp)
   22644:	10800550 	cmplti	r2,r2,21
   22648:	103fcc1e 	bne	r2,zero,2257c <_gp+0xfffe0a54>
						printf("Facing obstacle red\n");
   2264c:	010000f4 	movhi	r4,3
   22650:	211b4904 	addi	r4,r4,27940
   22654:	0028c4c0 	call	28c4c <puts>
						// Update members
						fprintf(fp, "v0s!\n");
   22658:	e1ffff17 	ldw	r7,-4(fp)
   2265c:	01800144 	movi	r6,5
   22660:	01400044 	movi	r5,1
   22664:	010000f4 	movhi	r4,3
   22668:	211b2d04 	addi	r4,r4,27828
   2266c:	0027e5c0 	call	27e5c <fwrite>
						return TRUE;
   22670:	00800044 	movi	r2,1
   22674:	00026f06 	br	23034 <go_towards+0x15dc>
					}
				}
			}else if (verilog_word == EEE_IMGPROC_MSG_START_G){
   22678:	e0ffca17 	ldw	r3,-216(fp)
   2267c:	008011f4 	movhi	r2,71
   22680:	10909084 	addi	r2,r2,16962
   22684:	1880351e 	bne	r3,r2,2275c <go_towards+0xd04>
				int g_topleft = IORD(EEE_IMGPROC_0_BASE,EEE_IMGPROC_MSG); // Grab the next word (top left coordinate)
   22688:	00800134 	movhi	r2,4
   2268c:	10840904 	addi	r2,r2,4132
   22690:	10800037 	ldwio	r2,0(r2)
   22694:	e0bfcb15 	stw	r2,-212(fp)
				int g_bottomright = IORD(EEE_IMGPROC_0_BASE,EEE_IMGPROC_MSG); // Grab the next word (bottom right coordinate)
   22698:	00800134 	movhi	r2,4
   2269c:	10840904 	addi	r2,r2,4132
   226a0:	10800037 	ldwio	r2,0(r2)
   226a4:	e0bfcc15 	stw	r2,-208(fp)

				int g_left_x = (g_topleft)>>16; // extracting the top 16 bits
   226a8:	e0bfcb17 	ldw	r2,-212(fp)
   226ac:	1005d43a 	srai	r2,r2,16
   226b0:	e0bfcd15 	stw	r2,-204(fp)
				int g_right_x = (g_bottomright)>>16;
   226b4:	e0bfcc17 	ldw	r2,-208(fp)
   226b8:	1005d43a 	srai	r2,r2,16
   226bc:	e0bfce15 	stw	r2,-200(fp)
				int g_left_y = (g_topleft & 0x0000ffff);
   226c0:	e0bfcb17 	ldw	r2,-212(fp)
   226c4:	10bfffcc 	andi	r2,r2,65535
   226c8:	e0bfcf15 	stw	r2,-196(fp)
				int g_right_y = (g_bottomright & 0x0000ffff);
   226cc:	e0bfcc17 	ldw	r2,-208(fp)
   226d0:	10bfffcc 	andi	r2,r2,65535
   226d4:	e0bfd015 	stw	r2,-192(fp)

				if(is_ball(g_left_x, g_right_x, g_left_y, g_right_y) && is_in_centre_range(g_left_x, g_right_x)){
   226d8:	e1ffd017 	ldw	r7,-192(fp)
   226dc:	e1bfcf17 	ldw	r6,-196(fp)
   226e0:	e17fce17 	ldw	r5,-200(fp)
   226e4:	e13fcd17 	ldw	r4,-204(fp)
   226e8:	00217280 	call	21728 <is_ball>
   226ec:	103fa326 	beq	r2,zero,2257c <_gp+0xfffe0a54>
   226f0:	e17fce17 	ldw	r5,-200(fp)
   226f4:	e13fcd17 	ldw	r4,-204(fp)
   226f8:	00218900 	call	21890 <is_in_centre_range>
   226fc:	103f9f26 	beq	r2,zero,2257c <_gp+0xfffe0a54>
					distance = distance_calc(g_left_x, g_right_x, g_left_y, g_right_y);
   22700:	e1ffd017 	ldw	r7,-192(fp)
   22704:	e1bfcf17 	ldw	r6,-196(fp)
   22708:	e17fce17 	ldw	r5,-200(fp)
   2270c:	e13fcd17 	ldw	r4,-204(fp)
   22710:	002197c0 	call	2197c <distance_calc>
   22714:	e0bf9215 	stw	r2,-440(fp)
					if (distance < 40 && distance > 20){
   22718:	e0bf9217 	ldw	r2,-440(fp)
   2271c:	10800a08 	cmpgei	r2,r2,40
   22720:	103f961e 	bne	r2,zero,2257c <_gp+0xfffe0a54>
   22724:	e0bf9217 	ldw	r2,-440(fp)
   22728:	10800550 	cmplti	r2,r2,21
   2272c:	103f931e 	bne	r2,zero,2257c <_gp+0xfffe0a54>
						printf("Facing obstacle green\n");
   22730:	010000f4 	movhi	r4,3
   22734:	211b3204 	addi	r4,r4,27848
   22738:	0028c4c0 	call	28c4c <puts>
						// Update members
						fprintf(fp, "v0s!\n");
   2273c:	e1ffff17 	ldw	r7,-4(fp)
   22740:	01800144 	movi	r6,5
   22744:	01400044 	movi	r5,1
   22748:	010000f4 	movhi	r4,3
   2274c:	211b2d04 	addi	r4,r4,27828
   22750:	0027e5c0 	call	27e5c <fwrite>
						return TRUE;
   22754:	00800044 	movi	r2,1
   22758:	00023606 	br	23034 <go_towards+0x15dc>
					}
				}
			}else if (verilog_word == EEE_IMGPROC_MSG_START_B){ // If the incoming string == RBB
   2275c:	e0ffca17 	ldw	r3,-216(fp)
   22760:	008010b4 	movhi	r2,66
   22764:	10909084 	addi	r2,r2,16962
   22768:	18809b1e 	bne	r3,r2,229d8 <go_towards+0xf80>
				int b_topleft = IORD(EEE_IMGPROC_0_BASE,EEE_IMGPROC_MSG); // Grab the next word (top left coordinate)
   2276c:	00800134 	movhi	r2,4
   22770:	10840904 	addi	r2,r2,4132
   22774:	10800037 	ldwio	r2,0(r2)
   22778:	e0bfd115 	stw	r2,-188(fp)
				int b_bottomright = IORD(EEE_IMGPROC_0_BASE,EEE_IMGPROC_MSG); // Grab the next word (bottom right coordinate)
   2277c:	00800134 	movhi	r2,4
   22780:	10840904 	addi	r2,r2,4132
   22784:	10800037 	ldwio	r2,0(r2)
   22788:	e0bfd215 	stw	r2,-184(fp)

                int b_left_x = (b_topleft)>>16; // extracting the top 16 bits
   2278c:	e0bfd117 	ldw	r2,-188(fp)
   22790:	1005d43a 	srai	r2,r2,16
   22794:	e0bfd315 	stw	r2,-180(fp)
				int b_right_x = (b_bottomright)>>16;
   22798:	e0bfd217 	ldw	r2,-184(fp)
   2279c:	1005d43a 	srai	r2,r2,16
   227a0:	e0bfd415 	stw	r2,-176(fp)
				int b_left_y = (b_topleft & 0x0000ffff);
   227a4:	e0bfd117 	ldw	r2,-188(fp)
   227a8:	10bfffcc 	andi	r2,r2,65535
   227ac:	e0bfd515 	stw	r2,-172(fp)
				int b_right_y = (b_bottomright & 0x0000ffff);
   227b0:	e0bfd217 	ldw	r2,-184(fp)
   227b4:	10bfffcc 	andi	r2,r2,65535
   227b8:	e0bfd615 	stw	r2,-168(fp)

                if(is_ball(b_left_x, b_right_x, b_left_y, b_right_y)){
   227bc:	e1ffd617 	ldw	r7,-168(fp)
   227c0:	e1bfd517 	ldw	r6,-172(fp)
   227c4:	e17fd417 	ldw	r5,-176(fp)
   227c8:	e13fd317 	ldw	r4,-180(fp)
   227cc:	00217280 	call	21728 <is_ball>
   227d0:	103f6a26 	beq	r2,zero,2257c <_gp+0xfffe0a54>
                    // Measure angle and correct if needed to
                    int middle_pix = (b_right_x + b_left_x) / 2;
   227d4:	e0ffd417 	ldw	r3,-176(fp)
   227d8:	e0bfd317 	ldw	r2,-180(fp)
   227dc:	1885883a 	add	r2,r3,r2
   227e0:	1006d7fa 	srli	r3,r2,31
   227e4:	1885883a 	add	r2,r3,r2
   227e8:	1005d07a 	srai	r2,r2,1
   227ec:	e0bfd715 	stw	r2,-164(fp)
					if (middle_pix < 240 && s1 == 0){
   227f0:	e0bfd717 	ldw	r2,-164(fp)
   227f4:	10803c08 	cmpgei	r2,r2,240
   227f8:	1000101e 	bne	r2,zero,2283c <go_towards+0xde4>
   227fc:	e0bf9317 	ldw	r2,-436(fp)
   22800:	10000e1e 	bne	r2,zero,2283c <go_towards+0xde4>
						fprintf(fp, "v0l!\n");
   22804:	e1ffff17 	ldw	r7,-4(fp)
   22808:	01800144 	movi	r6,5
   2280c:	01400044 	movi	r5,1
   22810:	010000f4 	movhi	r4,3
   22814:	211b0a04 	addi	r4,r4,27688
   22818:	0027e5c0 	call	27e5c <fwrite>
						printf("b : turn left\n");
   2281c:	010000f4 	movhi	r4,3
   22820:	211b6c04 	addi	r4,r4,28080
   22824:	0028c4c0 	call	28c4c <puts>
						s1 = 1;
   22828:	00800044 	movi	r2,1
   2282c:	e0bf9315 	stw	r2,-436(fp)
						s2 = 0;
   22830:	e03f9415 	stw	zero,-432(fp)
						s3 = 0;
   22834:	e03f9515 	stw	zero,-428(fp)
   22838:	00003106 	br	22900 <go_towards+0xea8>
					}else if(middle_pix > 400 && s2 == 0){
   2283c:	e0bfd717 	ldw	r2,-164(fp)
   22840:	10806450 	cmplti	r2,r2,401
   22844:	1000101e 	bne	r2,zero,22888 <go_towards+0xe30>
   22848:	e0bf9417 	ldw	r2,-432(fp)
   2284c:	10000e1e 	bne	r2,zero,22888 <go_towards+0xe30>
						fprintf(fp, "v0r!\n");
   22850:	e1ffff17 	ldw	r7,-4(fp)
   22854:	01800144 	movi	r6,5
   22858:	01400044 	movi	r5,1
   2285c:	010000f4 	movhi	r4,3
   22860:	211b1004 	addi	r4,r4,27712
   22864:	0027e5c0 	call	27e5c <fwrite>
						printf("b : turn right\n");
   22868:	010000f4 	movhi	r4,3
   2286c:	211b7004 	addi	r4,r4,28096
   22870:	0028c4c0 	call	28c4c <puts>
						s1 = 0;
   22874:	e03f9315 	stw	zero,-436(fp)
						s2 = 1;
   22878:	00800044 	movi	r2,1
   2287c:	e0bf9415 	stw	r2,-432(fp)
						s3 = 0;
   22880:	e03f9515 	stw	zero,-428(fp)
   22884:	00001e06 	br	22900 <go_towards+0xea8>
					}else if (middle_pix <= 400 && middle_pix >= 240 && s3 == 0){
   22888:	e0bfd717 	ldw	r2,-164(fp)
   2288c:	10806448 	cmpgei	r2,r2,401
   22890:	1000131e 	bne	r2,zero,228e0 <go_towards+0xe88>
   22894:	e0bfd717 	ldw	r2,-164(fp)
   22898:	10803c10 	cmplti	r2,r2,240
   2289c:	1000101e 	bne	r2,zero,228e0 <go_towards+0xe88>
   228a0:	e0bf9517 	ldw	r2,-428(fp)
   228a4:	10000e1e 	bne	r2,zero,228e0 <go_towards+0xe88>
						fprintf(fp, "v0g!\n");
   228a8:	e1ffff17 	ldw	r7,-4(fp)
   228ac:	01800144 	movi	r6,5
   228b0:	01400044 	movi	r5,1
   228b4:	010000f4 	movhi	r4,3
   228b8:	211b1604 	addi	r4,r4,27736
   228bc:	0027e5c0 	call	27e5c <fwrite>
						printf("b : go forward\n");
   228c0:	010000f4 	movhi	r4,3
   228c4:	211b7404 	addi	r4,r4,28112
   228c8:	0028c4c0 	call	28c4c <puts>
						s1 = 0;
   228cc:	e03f9315 	stw	zero,-436(fp)
						s2 = 0;
   228d0:	e03f9415 	stw	zero,-432(fp)
						s3 = 1;
   228d4:	00800044 	movi	r2,1
   228d8:	e0bf9515 	stw	r2,-428(fp)
   228dc:	00000806 	br	22900 <go_towards+0xea8>
					}else if(b_right_x >= 639 && b_left_x == 0){
   228e0:	e0bfd417 	ldw	r2,-176(fp)
   228e4:	10809fd0 	cmplti	r2,r2,639
   228e8:	1000051e 	bne	r2,zero,22900 <go_towards+0xea8>
   228ec:	e0bfd317 	ldw	r2,-180(fp)
   228f0:	1000031e 	bne	r2,zero,22900 <go_towards+0xea8>
						printf("Out of vision\n");
   228f4:	010000f4 	movhi	r4,3
   228f8:	211b1c04 	addi	r4,r4,27760
   228fc:	0028c4c0 	call	28c4c <puts>
					}

                    // If we can make a valid decision measurement, make it
                    if(is_ball(b_left_x, b_right_x, b_left_y, b_right_y) && middle_pix <= 440 && middle_pix >= 200){
   22900:	e1ffd617 	ldw	r7,-168(fp)
   22904:	e1bfd517 	ldw	r6,-172(fp)
   22908:	e17fd417 	ldw	r5,-176(fp)
   2290c:	e13fd317 	ldw	r4,-180(fp)
   22910:	00217280 	call	21728 <is_ball>
   22914:	103f1926 	beq	r2,zero,2257c <_gp+0xfffe0a54>
   22918:	e0bfd717 	ldw	r2,-164(fp)
   2291c:	10806e48 	cmpgei	r2,r2,441
   22920:	103f161e 	bne	r2,zero,2257c <_gp+0xfffe0a54>
   22924:	e0bfd717 	ldw	r2,-164(fp)
   22928:	10803210 	cmplti	r2,r2,200
   2292c:	103f131e 	bne	r2,zero,2257c <_gp+0xfffe0a54>
						printf("Is ball and is centred\n", distance);
   22930:	e17f9217 	ldw	r5,-440(fp)
   22934:	010000f4 	movhi	r4,3
   22938:	211b5a04 	addi	r4,r4,28008
   2293c:	0028b300 	call	28b30 <printf>
                        distance = distance_calc(b_left_x, b_right_x, b_left_y, b_right_y);
   22940:	e1ffd617 	ldw	r7,-168(fp)
   22944:	e1bfd517 	ldw	r6,-172(fp)
   22948:	e17fd417 	ldw	r5,-176(fp)
   2294c:	e13fd317 	ldw	r4,-180(fp)
   22950:	002197c0 	call	2197c <distance_calc>
   22954:	e0bf9215 	stw	r2,-440(fp)
						printf("Distance : %i\n", distance);
   22958:	e17f9217 	ldw	r5,-440(fp)
   2295c:	010000f4 	movhi	r4,3
   22960:	211b2604 	addi	r4,r4,27800
   22964:	0028b300 	call	28b30 <printf>
                        if (distance < 80 && distance > 25){
   22968:	e0bf9217 	ldw	r2,-440(fp)
   2296c:	10801408 	cmpgei	r2,r2,80
   22970:	103f021e 	bne	r2,zero,2257c <_gp+0xfffe0a54>
   22974:	e0bf9217 	ldw	r2,-440(fp)
   22978:	10800690 	cmplti	r2,r2,26
   2297c:	103eff1e 	bne	r2,zero,2257c <_gp+0xfffe0a54>
                            printf("Reached blue\n");
   22980:	010000f4 	movhi	r4,3
   22984:	211b7804 	addi	r4,r4,28128
   22988:	0028c4c0 	call	28c4c <puts>
                            fprintf(fp, "v0s!\n");
   2298c:	e1ffff17 	ldw	r7,-4(fp)
   22990:	01800144 	movi	r6,5
   22994:	01400044 	movi	r5,1
   22998:	010000f4 	movhi	r4,3
   2299c:	211b2d04 	addi	r4,r4,27828
   229a0:	0027e5c0 	call	27e5c <fwrite>
                            ball->distance = distance;
   229a4:	e0bffe17 	ldw	r2,-8(fp)
   229a8:	e0ff9217 	ldw	r3,-440(fp)
   229ac:	10c00115 	stw	r3,4(r2)
                            ball->seen = TRUE;
   229b0:	e0bffe17 	ldw	r2,-8(fp)
   229b4:	00c00044 	movi	r3,1
   229b8:	10c00415 	stw	r3,16(r2)
                            fprintf(fp, "c/b/%i/!\n", distance);
   229bc:	e1bf9217 	ldw	r6,-440(fp)
   229c0:	014000f4 	movhi	r5,3
   229c4:	295b7c04 	addi	r5,r5,28144
   229c8:	e13fff17 	ldw	r4,-4(fp)
   229cc:	00272d40 	call	272d4 <fprintf>
                            return TRUE;
   229d0:	00800044 	movi	r2,1
   229d4:	00019706 	br	23034 <go_towards+0x15dc>
                        }
                    }
                }
    	   	}else if (verilog_word == EEE_IMGPROC_MSG_START_Y){
   229d8:	e0ffca17 	ldw	r3,-216(fp)
   229dc:	00801674 	movhi	r2,89
   229e0:	10909084 	addi	r2,r2,16962
   229e4:	18bee51e 	bne	r3,r2,2257c <_gp+0xfffe0a54>
				int y_topleft = IORD(EEE_IMGPROC_0_BASE,EEE_IMGPROC_MSG); // Grab the next word (top left coordinate)
   229e8:	00800134 	movhi	r2,4
   229ec:	10840904 	addi	r2,r2,4132
   229f0:	10800037 	ldwio	r2,0(r2)
   229f4:	e0bfd815 	stw	r2,-160(fp)
				int y_bottomright = IORD(EEE_IMGPROC_0_BASE,EEE_IMGPROC_MSG); // Grab the next word (bottom right coordinate)
   229f8:	00800134 	movhi	r2,4
   229fc:	10840904 	addi	r2,r2,4132
   22a00:	10800037 	ldwio	r2,0(r2)
   22a04:	e0bfd915 	stw	r2,-156(fp)

				int y_left_x = (y_topleft)>>16; // extracting the top 16 bits
   22a08:	e0bfd817 	ldw	r2,-160(fp)
   22a0c:	1005d43a 	srai	r2,r2,16
   22a10:	e0bfda15 	stw	r2,-152(fp)
				int y_right_x = (y_bottomright)>>16;
   22a14:	e0bfd917 	ldw	r2,-156(fp)
   22a18:	1005d43a 	srai	r2,r2,16
   22a1c:	e0bfdb15 	stw	r2,-148(fp)
				int y_left_y = (y_topleft & 0x0000ffff);
   22a20:	e0bfd817 	ldw	r2,-160(fp)
   22a24:	10bfffcc 	andi	r2,r2,65535
   22a28:	e0bfdc15 	stw	r2,-144(fp)
				int y_right_y = (y_bottomright & 0x0000ffff);
   22a2c:	e0bfd917 	ldw	r2,-156(fp)
   22a30:	10bfffcc 	andi	r2,r2,65535
   22a34:	e0bfdd15 	stw	r2,-140(fp)

				if(is_ball(y_left_x, y_right_x, y_left_y, y_right_y) && is_in_centre_range(y_left_x, y_right_x)){
   22a38:	e1ffdd17 	ldw	r7,-140(fp)
   22a3c:	e1bfdc17 	ldw	r6,-144(fp)
   22a40:	e17fdb17 	ldw	r5,-148(fp)
   22a44:	e13fda17 	ldw	r4,-152(fp)
   22a48:	00217280 	call	21728 <is_ball>
   22a4c:	103ecb26 	beq	r2,zero,2257c <_gp+0xfffe0a54>
   22a50:	e17fdb17 	ldw	r5,-148(fp)
   22a54:	e13fda17 	ldw	r4,-152(fp)
   22a58:	00218900 	call	21890 <is_in_centre_range>
   22a5c:	103ec726 	beq	r2,zero,2257c <_gp+0xfffe0a54>
					distance = distance_calc(y_left_x, y_right_x, y_left_y, y_right_y);
   22a60:	e1ffdd17 	ldw	r7,-140(fp)
   22a64:	e1bfdc17 	ldw	r6,-144(fp)
   22a68:	e17fdb17 	ldw	r5,-148(fp)
   22a6c:	e13fda17 	ldw	r4,-152(fp)
   22a70:	002197c0 	call	2197c <distance_calc>
   22a74:	e0bf9215 	stw	r2,-440(fp)
					if (distance < 40 && distance > 20){
   22a78:	e0bf9217 	ldw	r2,-440(fp)
   22a7c:	10800a08 	cmpgei	r2,r2,40
   22a80:	103ebe1e 	bne	r2,zero,2257c <_gp+0xfffe0a54>
   22a84:	e0bf9217 	ldw	r2,-440(fp)
   22a88:	10800550 	cmplti	r2,r2,21
   22a8c:	103ebb1e 	bne	r2,zero,2257c <_gp+0xfffe0a54>
						printf("Facing obstacle yellow\n");
   22a90:	010000f4 	movhi	r4,3
   22a94:	211b3e04 	addi	r4,r4,27896
   22a98:	0028c4c0 	call	28c4c <puts>
						// Update members
						fprintf(fp, "v0s!\n");
   22a9c:	e1ffff17 	ldw	r7,-4(fp)
   22aa0:	01800144 	movi	r6,5
   22aa4:	01400044 	movi	r5,1
   22aa8:	010000f4 	movhi	r4,3
   22aac:	211b2d04 	addi	r4,r4,27828
   22ab0:	0027e5c0 	call	27e5c <fwrite>
						return TRUE;
   22ab4:	00800044 	movi	r2,1
   22ab8:	00015e06 	br	23034 <go_towards+0x15dc>
					}
				}
			}
		}
	}else if(ball->colour == 'Y'){
   22abc:	e0bffe17 	ldw	r2,-8(fp)
   22ac0:	10800003 	ldbu	r2,0(r2)
   22ac4:	10803fcc 	andi	r2,r2,255
   22ac8:	1080201c 	xori	r2,r2,128
   22acc:	10bfe004 	addi	r2,r2,-128
   22ad0:	10801658 	cmpnei	r2,r2,89
   22ad4:	1001531e 	bne	r2,zero,23024 <go_towards+0x15cc>
		printf("Going towards yellow\n");
   22ad8:	010000f4 	movhi	r4,3
   22adc:	211b7f04 	addi	r4,r4,28156
   22ae0:	0028c4c0 	call	28c4c <puts>
		while (1) {
            fflush(fp);
   22ae4:	e13fff17 	ldw	r4,-4(fp)
   22ae8:	0026dd00 	call	26dd0 <fflush>
			// Update the boundary box co-ordinates
			int verilog_word = IORD(EEE_IMGPROC_0_BASE,EEE_IMGPROC_MSG);
   22aec:	00800134 	movhi	r2,4
   22af0:	10840904 	addi	r2,r2,4132
   22af4:	10800037 	ldwio	r2,0(r2)
   22af8:	e0bfe415 	stw	r2,-112(fp)
			if (verilog_word == EEE_IMGPROC_MSG_START_R){
   22afc:	e0ffe417 	ldw	r3,-112(fp)
   22b00:	008014b4 	movhi	r2,82
   22b04:	10909084 	addi	r2,r2,16962
   22b08:	1880351e 	bne	r3,r2,22be0 <go_towards+0x1188>
				int r_topleft = IORD(EEE_IMGPROC_0_BASE,EEE_IMGPROC_MSG); // Grab the next word (top left coordinate)
   22b0c:	00800134 	movhi	r2,4
   22b10:	10840904 	addi	r2,r2,4132
   22b14:	10800037 	ldwio	r2,0(r2)
   22b18:	e0bff815 	stw	r2,-32(fp)
				int r_bottomright = IORD(EEE_IMGPROC_0_BASE,EEE_IMGPROC_MSG); // Grab the next word (bottom right coordinate)
   22b1c:	00800134 	movhi	r2,4
   22b20:	10840904 	addi	r2,r2,4132
   22b24:	10800037 	ldwio	r2,0(r2)
   22b28:	e0bff915 	stw	r2,-28(fp)

				int r_left_x = (r_topleft)>>16; // extracting the top 16 bits
   22b2c:	e0bff817 	ldw	r2,-32(fp)
   22b30:	1005d43a 	srai	r2,r2,16
   22b34:	e0bffa15 	stw	r2,-24(fp)
				int r_right_x = (r_bottomright)>>16;
   22b38:	e0bff917 	ldw	r2,-28(fp)
   22b3c:	1005d43a 	srai	r2,r2,16
   22b40:	e0bffb15 	stw	r2,-20(fp)
				int r_left_y = (r_topleft & 0x0000ffff);
   22b44:	e0bff817 	ldw	r2,-32(fp)
   22b48:	10bfffcc 	andi	r2,r2,65535
   22b4c:	e0bffc15 	stw	r2,-16(fp)
				int r_right_y = (r_bottomright & 0x0000ffff);
   22b50:	e0bff917 	ldw	r2,-28(fp)
   22b54:	10bfffcc 	andi	r2,r2,65535
   22b58:	e0bffd15 	stw	r2,-12(fp)

				if(is_ball(r_left_x, r_right_x, r_left_y, r_right_y) && is_in_centre_range(r_left_x, r_right_x)){
   22b5c:	e1fffd17 	ldw	r7,-12(fp)
   22b60:	e1bffc17 	ldw	r6,-16(fp)
   22b64:	e17ffb17 	ldw	r5,-20(fp)
   22b68:	e13ffa17 	ldw	r4,-24(fp)
   22b6c:	00217280 	call	21728 <is_ball>
   22b70:	103fdc26 	beq	r2,zero,22ae4 <_gp+0xfffe0fbc>
   22b74:	e17ffb17 	ldw	r5,-20(fp)
   22b78:	e13ffa17 	ldw	r4,-24(fp)
   22b7c:	00218900 	call	21890 <is_in_centre_range>
   22b80:	103fd826 	beq	r2,zero,22ae4 <_gp+0xfffe0fbc>
					distance = distance_calc(r_left_x, r_right_x, r_left_y, r_right_y);
   22b84:	e1fffd17 	ldw	r7,-12(fp)
   22b88:	e1bffc17 	ldw	r6,-16(fp)
   22b8c:	e17ffb17 	ldw	r5,-20(fp)
   22b90:	e13ffa17 	ldw	r4,-24(fp)
   22b94:	002197c0 	call	2197c <distance_calc>
   22b98:	e0bf9215 	stw	r2,-440(fp)
					if (distance < 40 && distance > 20){
   22b9c:	e0bf9217 	ldw	r2,-440(fp)
   22ba0:	10800a08 	cmpgei	r2,r2,40
   22ba4:	103fcf1e 	bne	r2,zero,22ae4 <_gp+0xfffe0fbc>
   22ba8:	e0bf9217 	ldw	r2,-440(fp)
   22bac:	10800550 	cmplti	r2,r2,21
   22bb0:	103fcc1e 	bne	r2,zero,22ae4 <_gp+0xfffe0fbc>
						printf("Facing obstacle red\n");
   22bb4:	010000f4 	movhi	r4,3
   22bb8:	211b4904 	addi	r4,r4,27940
   22bbc:	0028c4c0 	call	28c4c <puts>
						// Update members
						fprintf(fp, "v0s!\n");
   22bc0:	e1ffff17 	ldw	r7,-4(fp)
   22bc4:	01800144 	movi	r6,5
   22bc8:	01400044 	movi	r5,1
   22bcc:	010000f4 	movhi	r4,3
   22bd0:	211b2d04 	addi	r4,r4,27828
   22bd4:	0027e5c0 	call	27e5c <fwrite>
						return TRUE;
   22bd8:	00800044 	movi	r2,1
   22bdc:	00011506 	br	23034 <go_towards+0x15dc>
					}
				}
			}else if (verilog_word == EEE_IMGPROC_MSG_START_G){
   22be0:	e0ffe417 	ldw	r3,-112(fp)
   22be4:	008011f4 	movhi	r2,71
   22be8:	10909084 	addi	r2,r2,16962
   22bec:	1880351e 	bne	r3,r2,22cc4 <go_towards+0x126c>
				int g_topleft = IORD(EEE_IMGPROC_0_BASE,EEE_IMGPROC_MSG); // Grab the next word (top left coordinate)
   22bf0:	00800134 	movhi	r2,4
   22bf4:	10840904 	addi	r2,r2,4132
   22bf8:	10800037 	ldwio	r2,0(r2)
   22bfc:	e0bfe515 	stw	r2,-108(fp)
				int g_bottomright = IORD(EEE_IMGPROC_0_BASE,EEE_IMGPROC_MSG); // Grab the next word (bottom right coordinate)
   22c00:	00800134 	movhi	r2,4
   22c04:	10840904 	addi	r2,r2,4132
   22c08:	10800037 	ldwio	r2,0(r2)
   22c0c:	e0bfe615 	stw	r2,-104(fp)

				int g_left_x = (g_topleft)>>16; // extracting the top 16 bits
   22c10:	e0bfe517 	ldw	r2,-108(fp)
   22c14:	1005d43a 	srai	r2,r2,16
   22c18:	e0bfe715 	stw	r2,-100(fp)
				int g_right_x = (g_bottomright)>>16;
   22c1c:	e0bfe617 	ldw	r2,-104(fp)
   22c20:	1005d43a 	srai	r2,r2,16
   22c24:	e0bfe815 	stw	r2,-96(fp)
				int g_left_y = (g_topleft & 0x0000ffff);
   22c28:	e0bfe517 	ldw	r2,-108(fp)
   22c2c:	10bfffcc 	andi	r2,r2,65535
   22c30:	e0bfe915 	stw	r2,-92(fp)
				int g_right_y = (g_bottomright & 0x0000ffff);
   22c34:	e0bfe617 	ldw	r2,-104(fp)
   22c38:	10bfffcc 	andi	r2,r2,65535
   22c3c:	e0bfea15 	stw	r2,-88(fp)

				if(is_ball(g_left_x, g_right_x, g_left_y, g_right_y) && is_in_centre_range(g_left_x, g_right_x)){
   22c40:	e1ffea17 	ldw	r7,-88(fp)
   22c44:	e1bfe917 	ldw	r6,-92(fp)
   22c48:	e17fe817 	ldw	r5,-96(fp)
   22c4c:	e13fe717 	ldw	r4,-100(fp)
   22c50:	00217280 	call	21728 <is_ball>
   22c54:	103fa326 	beq	r2,zero,22ae4 <_gp+0xfffe0fbc>
   22c58:	e17fe817 	ldw	r5,-96(fp)
   22c5c:	e13fe717 	ldw	r4,-100(fp)
   22c60:	00218900 	call	21890 <is_in_centre_range>
   22c64:	103f9f26 	beq	r2,zero,22ae4 <_gp+0xfffe0fbc>
					distance = distance_calc(g_left_x, g_right_x, g_left_y, g_right_y);
   22c68:	e1ffea17 	ldw	r7,-88(fp)
   22c6c:	e1bfe917 	ldw	r6,-92(fp)
   22c70:	e17fe817 	ldw	r5,-96(fp)
   22c74:	e13fe717 	ldw	r4,-100(fp)
   22c78:	002197c0 	call	2197c <distance_calc>
   22c7c:	e0bf9215 	stw	r2,-440(fp)
					if (distance < 40 && distance > 20){
   22c80:	e0bf9217 	ldw	r2,-440(fp)
   22c84:	10800a08 	cmpgei	r2,r2,40
   22c88:	103f961e 	bne	r2,zero,22ae4 <_gp+0xfffe0fbc>
   22c8c:	e0bf9217 	ldw	r2,-440(fp)
   22c90:	10800550 	cmplti	r2,r2,21
   22c94:	103f931e 	bne	r2,zero,22ae4 <_gp+0xfffe0fbc>
						printf("Facing obstacle green\n");
   22c98:	010000f4 	movhi	r4,3
   22c9c:	211b3204 	addi	r4,r4,27848
   22ca0:	0028c4c0 	call	28c4c <puts>
						// Update members
						fprintf(fp, "v0s!\n");
   22ca4:	e1ffff17 	ldw	r7,-4(fp)
   22ca8:	01800144 	movi	r6,5
   22cac:	01400044 	movi	r5,1
   22cb0:	010000f4 	movhi	r4,3
   22cb4:	211b2d04 	addi	r4,r4,27828
   22cb8:	0027e5c0 	call	27e5c <fwrite>
						return TRUE;
   22cbc:	00800044 	movi	r2,1
   22cc0:	0000dc06 	br	23034 <go_towards+0x15dc>
					}
				}
			} else if (verilog_word == EEE_IMGPROC_MSG_START_B){
   22cc4:	e0ffe417 	ldw	r3,-112(fp)
   22cc8:	008010b4 	movhi	r2,66
   22ccc:	10909084 	addi	r2,r2,16962
   22cd0:	1880351e 	bne	r3,r2,22da8 <go_towards+0x1350>
				int b_topleft = IORD(EEE_IMGPROC_0_BASE,EEE_IMGPROC_MSG); // Grab the next word (top left coordinate)
   22cd4:	00800134 	movhi	r2,4
   22cd8:	10840904 	addi	r2,r2,4132
   22cdc:	10800037 	ldwio	r2,0(r2)
   22ce0:	e0bfeb15 	stw	r2,-84(fp)
				int b_bottomright = IORD(EEE_IMGPROC_0_BASE,EEE_IMGPROC_MSG); // Grab the next word (bottom right coordinate)
   22ce4:	00800134 	movhi	r2,4
   22ce8:	10840904 	addi	r2,r2,4132
   22cec:	10800037 	ldwio	r2,0(r2)
   22cf0:	e0bfec15 	stw	r2,-80(fp)

				int b_left_x = (b_topleft)>>16; // extracting the top 16 bits
   22cf4:	e0bfeb17 	ldw	r2,-84(fp)
   22cf8:	1005d43a 	srai	r2,r2,16
   22cfc:	e0bfed15 	stw	r2,-76(fp)
				int b_right_x = (b_bottomright)>>16;
   22d00:	e0bfec17 	ldw	r2,-80(fp)
   22d04:	1005d43a 	srai	r2,r2,16
   22d08:	e0bfee15 	stw	r2,-72(fp)
				int b_left_y = (b_topleft & 0x0000ffff);
   22d0c:	e0bfeb17 	ldw	r2,-84(fp)
   22d10:	10bfffcc 	andi	r2,r2,65535
   22d14:	e0bfef15 	stw	r2,-68(fp)
				int b_right_y = (b_bottomright & 0x0000ffff);
   22d18:	e0bfec17 	ldw	r2,-80(fp)
   22d1c:	10bfffcc 	andi	r2,r2,65535
   22d20:	e0bff015 	stw	r2,-64(fp)

				if(is_ball(b_left_x, b_right_x, b_left_y, b_right_y) && is_in_centre_range(b_left_x, b_right_x)){
   22d24:	e1fff017 	ldw	r7,-64(fp)
   22d28:	e1bfef17 	ldw	r6,-68(fp)
   22d2c:	e17fee17 	ldw	r5,-72(fp)
   22d30:	e13fed17 	ldw	r4,-76(fp)
   22d34:	00217280 	call	21728 <is_ball>
   22d38:	103f6a26 	beq	r2,zero,22ae4 <_gp+0xfffe0fbc>
   22d3c:	e17fee17 	ldw	r5,-72(fp)
   22d40:	e13fed17 	ldw	r4,-76(fp)
   22d44:	00218900 	call	21890 <is_in_centre_range>
   22d48:	103f6626 	beq	r2,zero,22ae4 <_gp+0xfffe0fbc>
					distance = distance_calc(b_left_x, b_right_x, b_left_y, b_right_y);
   22d4c:	e1fff017 	ldw	r7,-64(fp)
   22d50:	e1bfef17 	ldw	r6,-68(fp)
   22d54:	e17fee17 	ldw	r5,-72(fp)
   22d58:	e13fed17 	ldw	r4,-76(fp)
   22d5c:	002197c0 	call	2197c <distance_calc>
   22d60:	e0bf9215 	stw	r2,-440(fp)
					if (distance < 40 && distance > 20){
   22d64:	e0bf9217 	ldw	r2,-440(fp)
   22d68:	10800a08 	cmpgei	r2,r2,40
   22d6c:	103f5d1e 	bne	r2,zero,22ae4 <_gp+0xfffe0fbc>
   22d70:	e0bf9217 	ldw	r2,-440(fp)
   22d74:	10800550 	cmplti	r2,r2,21
   22d78:	103f5a1e 	bne	r2,zero,22ae4 <_gp+0xfffe0fbc>
						printf("Facing obstacle blue\n");
   22d7c:	010000f4 	movhi	r4,3
   22d80:	211b3804 	addi	r4,r4,27872
   22d84:	0028c4c0 	call	28c4c <puts>
						// Update members
						fprintf(fp, "v0s!\n");
   22d88:	e1ffff17 	ldw	r7,-4(fp)
   22d8c:	01800144 	movi	r6,5
   22d90:	01400044 	movi	r5,1
   22d94:	010000f4 	movhi	r4,3
   22d98:	211b2d04 	addi	r4,r4,27828
   22d9c:	0027e5c0 	call	27e5c <fwrite>
						return TRUE;
   22da0:	00800044 	movi	r2,1
   22da4:	0000a306 	br	23034 <go_towards+0x15dc>
					}
				}
			}else if (verilog_word == EEE_IMGPROC_MSG_START_Y){ // If the incoming string == RBB
   22da8:	e0ffe417 	ldw	r3,-112(fp)
   22dac:	00801674 	movhi	r2,89
   22db0:	10909084 	addi	r2,r2,16962
   22db4:	18bf4b1e 	bne	r3,r2,22ae4 <_gp+0xfffe0fbc>
				int y_topleft = IORD(EEE_IMGPROC_0_BASE,EEE_IMGPROC_MSG); // Grab the next word (top left coordinate)
   22db8:	00800134 	movhi	r2,4
   22dbc:	10840904 	addi	r2,r2,4132
   22dc0:	10800037 	ldwio	r2,0(r2)
   22dc4:	e0bff115 	stw	r2,-60(fp)
				int y_bottomright = IORD(EEE_IMGPROC_0_BASE,EEE_IMGPROC_MSG); // Grab the next word (bottom right coordinate)
   22dc8:	00800134 	movhi	r2,4
   22dcc:	10840904 	addi	r2,r2,4132
   22dd0:	10800037 	ldwio	r2,0(r2)
   22dd4:	e0bff215 	stw	r2,-56(fp)
				int y_left_x = (y_topleft)>>16; // extracting the top 16 bits
   22dd8:	e0bff117 	ldw	r2,-60(fp)
   22ddc:	1005d43a 	srai	r2,r2,16
   22de0:	e0bff315 	stw	r2,-52(fp)
				int y_right_x = (y_bottomright)>>16;
   22de4:	e0bff217 	ldw	r2,-56(fp)
   22de8:	1005d43a 	srai	r2,r2,16
   22dec:	e0bff415 	stw	r2,-48(fp)
				int y_left_y = (y_topleft & 0x0000ffff);
   22df0:	e0bff117 	ldw	r2,-60(fp)
   22df4:	10bfffcc 	andi	r2,r2,65535
   22df8:	e0bff515 	stw	r2,-44(fp)
				int y_right_y = (y_bottomright & 0x0000ffff);
   22dfc:	e0bff217 	ldw	r2,-56(fp)
   22e00:	10bfffcc 	andi	r2,r2,65535
   22e04:	e0bff615 	stw	r2,-40(fp)

                if(is_ball(y_left_x, y_right_x, y_left_y, y_right_y)){
   22e08:	e1fff617 	ldw	r7,-40(fp)
   22e0c:	e1bff517 	ldw	r6,-44(fp)
   22e10:	e17ff417 	ldw	r5,-48(fp)
   22e14:	e13ff317 	ldw	r4,-52(fp)
   22e18:	00217280 	call	21728 <is_ball>
   22e1c:	103f3126 	beq	r2,zero,22ae4 <_gp+0xfffe0fbc>
                    // Measure angle and correct if needed to
                    int middle_pix = (y_right_x + y_left_x) / 2;
   22e20:	e0fff417 	ldw	r3,-48(fp)
   22e24:	e0bff317 	ldw	r2,-52(fp)
   22e28:	1885883a 	add	r2,r3,r2
   22e2c:	1006d7fa 	srli	r3,r2,31
   22e30:	1885883a 	add	r2,r3,r2
   22e34:	1005d07a 	srai	r2,r2,1
   22e38:	e0bff715 	stw	r2,-36(fp)
					if (middle_pix < 240 && s1 == 0){
   22e3c:	e0bff717 	ldw	r2,-36(fp)
   22e40:	10803c08 	cmpgei	r2,r2,240
   22e44:	1000101e 	bne	r2,zero,22e88 <go_towards+0x1430>
   22e48:	e0bf9317 	ldw	r2,-436(fp)
   22e4c:	10000e1e 	bne	r2,zero,22e88 <go_towards+0x1430>
						fprintf(fp, "v0l!\n");
   22e50:	e1ffff17 	ldw	r7,-4(fp)
   22e54:	01800144 	movi	r6,5
   22e58:	01400044 	movi	r5,1
   22e5c:	010000f4 	movhi	r4,3
   22e60:	211b0a04 	addi	r4,r4,27688
   22e64:	0027e5c0 	call	27e5c <fwrite>
						printf("y : turn left\n");
   22e68:	010000f4 	movhi	r4,3
   22e6c:	211b8504 	addi	r4,r4,28180
   22e70:	0028c4c0 	call	28c4c <puts>
						s1 = 1;
   22e74:	00800044 	movi	r2,1
   22e78:	e0bf9315 	stw	r2,-436(fp)
						s2 = 0;
   22e7c:	e03f9415 	stw	zero,-432(fp)
						s3 = 0;
   22e80:	e03f9515 	stw	zero,-428(fp)
   22e84:	00003106 	br	22f4c <go_towards+0x14f4>
					}else if(middle_pix > 400 && s2 == 0){
   22e88:	e0bff717 	ldw	r2,-36(fp)
   22e8c:	10806450 	cmplti	r2,r2,401
   22e90:	1000101e 	bne	r2,zero,22ed4 <go_towards+0x147c>
   22e94:	e0bf9417 	ldw	r2,-432(fp)
   22e98:	10000e1e 	bne	r2,zero,22ed4 <go_towards+0x147c>
						fprintf(fp, "v0r!\n");
   22e9c:	e1ffff17 	ldw	r7,-4(fp)
   22ea0:	01800144 	movi	r6,5
   22ea4:	01400044 	movi	r5,1
   22ea8:	010000f4 	movhi	r4,3
   22eac:	211b1004 	addi	r4,r4,27712
   22eb0:	0027e5c0 	call	27e5c <fwrite>
						printf("y : turn right\n");
   22eb4:	010000f4 	movhi	r4,3
   22eb8:	211b8904 	addi	r4,r4,28196
   22ebc:	0028c4c0 	call	28c4c <puts>
						s1 = 0;
   22ec0:	e03f9315 	stw	zero,-436(fp)
						s2 = 1;
   22ec4:	00800044 	movi	r2,1
   22ec8:	e0bf9415 	stw	r2,-432(fp)
						s3 = 0;
   22ecc:	e03f9515 	stw	zero,-428(fp)
   22ed0:	00001e06 	br	22f4c <go_towards+0x14f4>
					}else if (middle_pix <= 400 && middle_pix >= 240 && s3 == 0){
   22ed4:	e0bff717 	ldw	r2,-36(fp)
   22ed8:	10806448 	cmpgei	r2,r2,401
   22edc:	1000131e 	bne	r2,zero,22f2c <go_towards+0x14d4>
   22ee0:	e0bff717 	ldw	r2,-36(fp)
   22ee4:	10803c10 	cmplti	r2,r2,240
   22ee8:	1000101e 	bne	r2,zero,22f2c <go_towards+0x14d4>
   22eec:	e0bf9517 	ldw	r2,-428(fp)
   22ef0:	10000e1e 	bne	r2,zero,22f2c <go_towards+0x14d4>
						fprintf(fp, "v0g!\n");
   22ef4:	e1ffff17 	ldw	r7,-4(fp)
   22ef8:	01800144 	movi	r6,5
   22efc:	01400044 	movi	r5,1
   22f00:	010000f4 	movhi	r4,3
   22f04:	211b1604 	addi	r4,r4,27736
   22f08:	0027e5c0 	call	27e5c <fwrite>
						printf("y : go forward\n");
   22f0c:	010000f4 	movhi	r4,3
   22f10:	211b8d04 	addi	r4,r4,28212
   22f14:	0028c4c0 	call	28c4c <puts>
						s1 = 0;
   22f18:	e03f9315 	stw	zero,-436(fp)
						s2 = 0;
   22f1c:	e03f9415 	stw	zero,-432(fp)
						s3 = 1;
   22f20:	00800044 	movi	r2,1
   22f24:	e0bf9515 	stw	r2,-428(fp)
   22f28:	00000806 	br	22f4c <go_towards+0x14f4>
					}else if(y_right_x >= 639 && y_left_x == 0){
   22f2c:	e0bff417 	ldw	r2,-48(fp)
   22f30:	10809fd0 	cmplti	r2,r2,639
   22f34:	1000051e 	bne	r2,zero,22f4c <go_towards+0x14f4>
   22f38:	e0bff317 	ldw	r2,-52(fp)
   22f3c:	1000031e 	bne	r2,zero,22f4c <go_towards+0x14f4>
						printf("Out of vision\n");
   22f40:	010000f4 	movhi	r4,3
   22f44:	211b1c04 	addi	r4,r4,27760
   22f48:	0028c4c0 	call	28c4c <puts>
					}

                    // If we can make a valid decision measurement, make it
                    if(is_ball(y_left_x, y_right_x, y_left_y, y_right_y) && middle_pix <= 440 && middle_pix >= 200){
   22f4c:	e1fff617 	ldw	r7,-40(fp)
   22f50:	e1bff517 	ldw	r6,-44(fp)
   22f54:	e17ff417 	ldw	r5,-48(fp)
   22f58:	e13ff317 	ldw	r4,-52(fp)
   22f5c:	00217280 	call	21728 <is_ball>
   22f60:	103ee026 	beq	r2,zero,22ae4 <_gp+0xfffe0fbc>
   22f64:	e0bff717 	ldw	r2,-36(fp)
   22f68:	10806e48 	cmpgei	r2,r2,441
   22f6c:	103edd1e 	bne	r2,zero,22ae4 <_gp+0xfffe0fbc>
   22f70:	e0bff717 	ldw	r2,-36(fp)
   22f74:	10803210 	cmplti	r2,r2,200
   22f78:	103eda1e 	bne	r2,zero,22ae4 <_gp+0xfffe0fbc>
						printf("Is ball and is centred\n", distance);
   22f7c:	e17f9217 	ldw	r5,-440(fp)
   22f80:	010000f4 	movhi	r4,3
   22f84:	211b5a04 	addi	r4,r4,28008
   22f88:	0028b300 	call	28b30 <printf>
                        distance = distance_calc(y_left_x, y_right_x, y_left_y, y_right_y);
   22f8c:	e1fff617 	ldw	r7,-40(fp)
   22f90:	e1bff517 	ldw	r6,-44(fp)
   22f94:	e17ff417 	ldw	r5,-48(fp)
   22f98:	e13ff317 	ldw	r4,-52(fp)
   22f9c:	002197c0 	call	2197c <distance_calc>
   22fa0:	e0bf9215 	stw	r2,-440(fp)
						printf("Distance : %i\n", distance);
   22fa4:	e17f9217 	ldw	r5,-440(fp)
   22fa8:	010000f4 	movhi	r4,3
   22fac:	211b2604 	addi	r4,r4,27800
   22fb0:	0028b300 	call	28b30 <printf>
                        if (distance < 80 && distance > 25){
   22fb4:	e0bf9217 	ldw	r2,-440(fp)
   22fb8:	10801408 	cmpgei	r2,r2,80
   22fbc:	103ec91e 	bne	r2,zero,22ae4 <_gp+0xfffe0fbc>
   22fc0:	e0bf9217 	ldw	r2,-440(fp)
   22fc4:	10800690 	cmplti	r2,r2,26
   22fc8:	103ec61e 	bne	r2,zero,22ae4 <_gp+0xfffe0fbc>
                            printf("Reached yellow\n");
   22fcc:	010000f4 	movhi	r4,3
   22fd0:	211b9104 	addi	r4,r4,28228
   22fd4:	0028c4c0 	call	28c4c <puts>
                            fprintf(fp, "v0s!\n");
   22fd8:	e1ffff17 	ldw	r7,-4(fp)
   22fdc:	01800144 	movi	r6,5
   22fe0:	01400044 	movi	r5,1
   22fe4:	010000f4 	movhi	r4,3
   22fe8:	211b2d04 	addi	r4,r4,27828
   22fec:	0027e5c0 	call	27e5c <fwrite>
                            // Update members
                            ball->distance = distance;
   22ff0:	e0bffe17 	ldw	r2,-8(fp)
   22ff4:	e0ff9217 	ldw	r3,-440(fp)
   22ff8:	10c00115 	stw	r3,4(r2)
                            ball->seen = TRUE;
   22ffc:	e0bffe17 	ldw	r2,-8(fp)
   23000:	00c00044 	movi	r3,1
   23004:	10c00415 	stw	r3,16(r2)
                            fprintf(fp, "c/y/%i/!\n", distance);
   23008:	e1bf9217 	ldw	r6,-440(fp)
   2300c:	014000f4 	movhi	r5,3
   23010:	295b9504 	addi	r5,r5,28244
   23014:	e13fff17 	ldw	r4,-4(fp)
   23018:	00272d40 	call	272d4 <fprintf>
                            return TRUE;
   2301c:	00800044 	movi	r2,1
   23020:	00000406 	br	23034 <go_towards+0x15dc>
                    }
                }
    	   	}
		}
	}
	printf("Reaching return 0\n");
   23024:	010000f4 	movhi	r4,3
   23028:	211b9804 	addi	r4,r4,28256
   2302c:	0028c4c0 	call	28c4c <puts>
	return 0;
   23030:	0005883a 	mov	r2,zero
}
   23034:	e037883a 	mov	sp,fp
   23038:	dfc00117 	ldw	ra,4(sp)
   2303c:	df000017 	ldw	fp,0(sp)
   23040:	dec00204 	addi	sp,sp,8
   23044:	f800283a 	ret

00023048 <main>:

int main()
{
   23048:	deffa004 	addi	sp,sp,-384
   2304c:	dfc05f15 	stw	ra,380(sp)
   23050:	df005e15 	stw	fp,376(sp)
   23054:	df005e04 	addi	fp,sp,376
	printf("\n");
   23058:	01000284 	movi	r4,10
   2305c:	0028b740 	call	28b74 <putchar>
	fcntl(STDIN_FILENO, F_SETFL, O_NONBLOCK);
   23060:	01900004 	movi	r6,16384
   23064:	01400104 	movi	r5,4
   23068:	0009883a 	mov	r4,zero
   2306c:	00337140 	call	33714 <fcntl>

	printf("DE10-LITE D8M VGA Demo\n");
   23070:	010000f4 	movhi	r4,3
   23074:	211b9d04 	addi	r4,r4,28276
   23078:	0028c4c0 	call	28c4c <puts>
	printf("Imperial College EEE2 Project version\n");
   2307c:	010000f4 	movhi	r4,3
   23080:	211ba304 	addi	r4,r4,28300
   23084:	0028c4c0 	call	28c4c <puts>
	IOWR(MIPI_PWDN_N_BASE, 0x00, 0x00);
   23088:	0007883a 	mov	r3,zero
   2308c:	00800134 	movhi	r2,4
   23090:	10843004 	addi	r2,r2,4288
   23094:	10c00035 	stwio	r3,0(r2)
	IOWR(MIPI_RESET_N_BASE, 0x00, 0x00);
   23098:	0007883a 	mov	r3,zero
   2309c:	00800134 	movhi	r2,4
   230a0:	10843404 	addi	r2,r2,4304
   230a4:	10c00035 	stwio	r3,0(r2)

	usleep(2000);
   230a8:	0101f404 	movi	r4,2000
   230ac:	00343040 	call	34304 <usleep>
	IOWR(MIPI_PWDN_N_BASE, 0x00, 0xFF);
   230b0:	00c03fc4 	movi	r3,255
   230b4:	00800134 	movhi	r2,4
   230b8:	10843004 	addi	r2,r2,4288
   230bc:	10c00035 	stwio	r3,0(r2)
	usleep(2000);
   230c0:	0101f404 	movi	r4,2000
   230c4:	00343040 	call	34304 <usleep>
	IOWR(MIPI_RESET_N_BASE, 0x00, 0xFF);
   230c8:	00c03fc4 	movi	r3,255
   230cc:	00800134 	movhi	r2,4
   230d0:	10843404 	addi	r2,r2,4304
   230d4:	10c00035 	stwio	r3,0(r2)

	printf("Image Processor ID: %x\n",IORD(EEE_IMGPROC_0_BASE,EEE_IMGPROC_ID));
   230d8:	00800134 	movhi	r2,4
   230dc:	10840a04 	addi	r2,r2,4136
   230e0:	10800037 	ldwio	r2,0(r2)
   230e4:	100b883a 	mov	r5,r2
   230e8:	010000f4 	movhi	r4,3
   230ec:	211bad04 	addi	r4,r4,28340
   230f0:	0028b300 	call	28b30 <printf>

	usleep(2000);
   230f4:	0101f404 	movi	r4,2000
   230f8:	00343040 	call	34304 <usleep>

	// MIPI Init
	printf("Initialising MIPI bridge");
   230fc:	010000f4 	movhi	r4,3
   23100:	211bb304 	addi	r4,r4,28364
   23104:	0028b300 	call	28b30 <printf>
	if (!MIPI_Init()){
   23108:	00216a00 	call	216a0 <MIPI_Init>
   2310c:	1000041e 	bne	r2,zero,23120 <main+0xd8>
		printf("MIPI_Init Init failed!\r\n");
   23110:	010000f4 	movhi	r4,3
   23114:	211bba04 	addi	r4,r4,28392
   23118:	0028c4c0 	call	28c4c <puts>
   2311c:	00000306 	br	2312c <main+0xe4>
	}else{
		printf("MIPI_Init Init successfully!\r\n");
   23120:	010000f4 	movhi	r4,3
   23124:	211bc004 	addi	r4,r4,28416
   23128:	0028c4c0 	call	28c4c <puts>
	}

	usleep(2000);
   2312c:	0101f404 	movi	r4,2000
   23130:	00343040 	call	34304 <usleep>

 	mipi_clear_error();
   23134:	00213d80 	call	213d8 <mipi_clear_error>
	usleep(50*1000);
   23138:	0130d414 	movui	r4,50000
   2313c:	00343040 	call	34304 <usleep>
 	mipi_clear_error();
   23140:	00213d80 	call	213d8 <mipi_clear_error>
	usleep(1000*1000);
   23144:	010003f4 	movhi	r4,15
   23148:	21109004 	addi	r4,r4,16960
   2314c:	00343040 	call	34304 <usleep>
	mipi_show_error_info();
   23150:	00214900 	call	21490 <mipi_show_error_info>
	printf("\n");
   23154:	01000284 	movi	r4,10
   23158:	0028b740 	call	28b74 <putchar>

    //////////////////////////////////////////////////////////
    alt_u16 bin_level = DEFAULT_LEVEL;
   2315c:	008000c4 	movi	r2,3
   23160:	e0bfa20d 	sth	r2,-376(fp)
    alt_u8  manual_focus_step = 10;
   23164:	00800284 	movi	r2,10
   23168:	e0bfb905 	stb	r2,-284(fp)
    alt_u16  current_focus = 300;
   2316c:	00804b04 	movi	r2,300
   23170:	e0bfb98d 	sth	r2,-282(fp)
    int boundingBoxColour = 0;
   23174:	e03fba15 	stw	zero,-280(fp)
    alt_u32 exposureTime = EXPOSURE_INIT;
   23178:	00800074 	movhi	r2,1
   2317c:	e0bfbb15 	stw	r2,-276(fp)
    alt_u16 gain = GAIN_INIT;
   23180:	00809404 	movi	r2,592
   23184:	e0bfbc0d 	sth	r2,-272(fp)

    OV8865SetExposure(exposureTime);
   23188:	e13fbb17 	ldw	r4,-276(fp)
   2318c:	0024c200 	call	24c20 <OV8865SetExposure>
    OV8865SetGain(gain);
   23190:	e0bfbc0b 	ldhu	r2,-272(fp)
   23194:	1009883a 	mov	r4,r2
   23198:	0024d000 	call	24d00 <OV8865SetGain>
    Focus_Init();
   2319c:	00210400 	call	21040 <Focus_Init>

		//	Setting up connection to UART
	// 	Opening connection to UART preliminaries
	printf("Opening connection to UART\n");
   231a0:	010000f4 	movhi	r4,3
   231a4:	211bc804 	addi	r4,r4,28448
   231a8:	0028c4c0 	call	28c4c <puts>
	// File pointer point to the UART connection
	FILE* fp;

	// Loop until we have connected to the UART
	while(1){
		fp = fopen("/dev/uart", "r+");
   231ac:	014000f4 	movhi	r5,3
   231b0:	295bcf04 	addi	r5,r5,28476
   231b4:	010000f4 	movhi	r4,3
   231b8:	211bd004 	addi	r4,r4,28480
   231bc:	00272940 	call	27294 <fopen>
   231c0:	e0bfbd15 	stw	r2,-268(fp)
		if(fp){
   231c4:	e0bfbd17 	ldw	r2,-268(fp)
   231c8:	10005326 	beq	r2,zero,23318 <main+0x2d0>
			printf("Opened connection to UART\n");
   231cc:	010000f4 	movhi	r4,3
   231d0:	211bd304 	addi	r4,r4,28492
   231d4:	0028c4c0 	call	28c4c <puts>
			break;
   231d8:	0001883a 	nop
	}

		// Declarations
	// Struct/class declarations
	Ball redBall, greenBall, blueBall, yellowBall;
	Ball *redBall_ptr = &redBall;
   231dc:	e0bfd604 	addi	r2,fp,-168
   231e0:	e0bfbe15 	stw	r2,-264(fp)
	Ball *greenBall_ptr = &greenBall;
   231e4:	e0bfde04 	addi	r2,fp,-136
   231e8:	e0bfbf15 	stw	r2,-260(fp)
	Ball *blueBall_ptr = &blueBall;
   231ec:	e0bfe604 	addi	r2,fp,-104
   231f0:	e0bfc015 	stw	r2,-256(fp)
	//Ball *violetBall_ptr = &violetBall;
	Ball *yellowBall_ptr = &yellowBall;
   231f4:	e0bfee04 	addi	r2,fp,-72
   231f8:	e0bfc115 	stw	r2,-252(fp)

	redBall_ptr->colour = 'R';
   231fc:	e0bfbe17 	ldw	r2,-264(fp)
   23200:	00c01484 	movi	r3,82
   23204:	10c00005 	stb	r3,0(r2)
	redBall_ptr->seen = FALSE;
   23208:	e0bfbe17 	ldw	r2,-264(fp)
   2320c:	10000415 	stw	zero,16(r2)
	redBall_ptr->seen1 = FALSE;
   23210:	e0bfbe17 	ldw	r2,-264(fp)
   23214:	10000515 	stw	zero,20(r2)
	redBall_ptr->seen2 = FALSE;
   23218:	e0bfbe17 	ldw	r2,-264(fp)
   2321c:	10000615 	stw	zero,24(r2)
	redBall_ptr->seen3 = FALSE;
   23220:	e0bfbe17 	ldw	r2,-264(fp)
   23224:	10000715 	stw	zero,28(r2)

	greenBall_ptr->colour = 'G';
   23228:	e0bfbf17 	ldw	r2,-260(fp)
   2322c:	00c011c4 	movi	r3,71
   23230:	10c00005 	stb	r3,0(r2)
	greenBall_ptr->seen = FALSE;
   23234:	e0bfbf17 	ldw	r2,-260(fp)
   23238:	10000415 	stw	zero,16(r2)
	greenBall_ptr->seen1 = FALSE;
   2323c:	e0bfbf17 	ldw	r2,-260(fp)
   23240:	10000515 	stw	zero,20(r2)
	greenBall_ptr->seen2 = FALSE;
   23244:	e0bfbf17 	ldw	r2,-260(fp)
   23248:	10000615 	stw	zero,24(r2)
	greenBall_ptr->seen3 = FALSE;
   2324c:	e0bfbf17 	ldw	r2,-260(fp)
   23250:	10000715 	stw	zero,28(r2)

	blueBall_ptr->colour = 'B';
   23254:	e0bfc017 	ldw	r2,-256(fp)
   23258:	00c01084 	movi	r3,66
   2325c:	10c00005 	stb	r3,0(r2)
	blueBall_ptr->seen = FALSE;
   23260:	e0bfc017 	ldw	r2,-256(fp)
   23264:	10000415 	stw	zero,16(r2)
	blueBall_ptr->seen1 = FALSE;
   23268:	e0bfc017 	ldw	r2,-256(fp)
   2326c:	10000515 	stw	zero,20(r2)
	blueBall_ptr->seen2 = FALSE;
   23270:	e0bfc017 	ldw	r2,-256(fp)
   23274:	10000615 	stw	zero,24(r2)
	blueBall_ptr->seen3 = FALSE;
   23278:	e0bfc017 	ldw	r2,-256(fp)
   2327c:	10000715 	stw	zero,28(r2)
//	violetBall_ptr->seen = FALSE;
//	violetBall_ptr->seen1 = FALSE;
//	violetBall_ptr->seen2 = FALSE;
//	violetBall_ptr->seen3 = FALSE;

	yellowBall_ptr->colour = 'Y';
   23280:	e0bfc117 	ldw	r2,-252(fp)
   23284:	00c01644 	movi	r3,89
   23288:	10c00005 	stb	r3,0(r2)
	yellowBall_ptr->seen = FALSE;
   2328c:	e0bfc117 	ldw	r2,-252(fp)
   23290:	10000415 	stw	zero,16(r2)
	yellowBall_ptr->seen1 = FALSE;
   23294:	e0bfc117 	ldw	r2,-252(fp)
   23298:	10000515 	stw	zero,20(r2)
	yellowBall_ptr->seen2 = FALSE;
   2329c:	e0bfc117 	ldw	r2,-252(fp)
   232a0:	10000615 	stw	zero,24(r2)
	yellowBall_ptr->seen3 = FALSE;
   232a4:	e0bfc117 	ldw	r2,-252(fp)
   232a8:	10000715 	stw	zero,28(r2)

	int balls_detected = 0;
   232ac:	e03fa315 	stw	zero,-372(fp)

	// Single variable to handle all of the distances
	int distance;

	// 2nd scan specific variables
	int s2_balls_detected = 0;
   232b0:	e03fb415 	stw	zero,-304(fp)
	Ball nothing;
	Ball *closestBall;
	closestBall = &nothing;
   232b4:	e0bff604 	addi	r2,fp,-40
   232b8:	e0bfb515 	stw	r2,-300(fp)
	closestBall->distance = 500;
   232bc:	e0bfb517 	ldw	r2,-300(fp)
   232c0:	00c07d04 	movi	r3,500
   232c4:	10c00115 	stw	r3,4(r2)

	// Other
	int state = 0; // or stage
   232c8:	e03fb615 	stw	zero,-296(fp)
	int second_scan_done = 0;
   232cc:	e03fb715 	stw	zero,-292(fp)
	int state1_array[2];
	int foundbit = 0;
   232d0:	e03fb815 	stw	zero,-288(fp)
	int count = 0;
   232d4:	e03fc215 	stw	zero,-248(fp)

	int incomingChar1;

	fprintf(fp, "v0g!\n");
   232d8:	e1ffbd17 	ldw	r7,-268(fp)
   232dc:	01800144 	movi	r6,5
   232e0:	01400044 	movi	r5,1
   232e4:	010000f4 	movhi	r4,3
   232e8:	211b1604 	addi	r4,r4,27736
   232ec:	0027e5c0 	call	27e5c <fwrite>
	printf("Sent v0g\n");
   232f0:	010000f4 	movhi	r4,3
   232f4:	211be404 	addi	r4,r4,28560
   232f8:	0028c4c0 	call	28c4c <puts>

	// In this loop, we look at what state we are in and perform
	//		the desired actions
  	while(1){
        // touch KEY0 to trigger Auto focus
	    if((IORD(KEY_BASE,0)&0x03) == 0x02){
   232fc:	00800134 	movhi	r2,4
   23300:	10843804 	addi	r2,r2,4320
   23304:	10800037 	ldwio	r2,0(r2)
   23308:	108000cc 	andi	r2,r2,3
   2330c:	10800098 	cmpnei	r2,r2,2
   23310:	1000091e 	bne	r2,zero,23338 <main+0x2f0>
   23314:	00000406 	br	23328 <main+0x2e0>
		fp = fopen("/dev/uart", "r+");
		if(fp){
			printf("Opened connection to UART\n");
			break;
		}else{
			printf("Unable to connect to UART, trying again\n");
   23318:	010000f4 	movhi	r4,3
   2331c:	211bda04 	addi	r4,r4,28520
   23320:	0028c4c0 	call	28c4c <puts>
		}
	}
   23324:	003fa106 	br	231ac <_gp+0xfffe1684>
	// In this loop, we look at what state we are in and perform
	//		the desired actions
  	while(1){
        // touch KEY0 to trigger Auto focus
	    if((IORD(KEY_BASE,0)&0x03) == 0x02){
    		current_focus = Focus_Window(320,240);
   23328:	01403c04 	movi	r5,240
   2332c:	01005004 	movi	r4,320
   23330:	00211680 	call	21168 <Focus_Window>
   23334:	e0bfb98d 	sth	r2,-282(fp)
	    }

	   	// touch KEY1 to ZOOM
		if((IORD(KEY_BASE,0)&0x03) == 0x01){
   23338:	00800134 	movhi	r2,4
   2333c:	10843804 	addi	r2,r2,4320
   23340:	10800037 	ldwio	r2,0(r2)
   23344:	108000cc 	andi	r2,r2,3
   23348:	10800058 	cmpnei	r2,r2,1
   2334c:	1000151e 	bne	r2,zero,233a4 <main+0x35c>
	      	if(bin_level == 3 )bin_level = 1;
   23350:	e0bfa20b 	ldhu	r2,-376(fp)
   23354:	108000d8 	cmpnei	r2,r2,3
   23358:	1000031e 	bne	r2,zero,23368 <main+0x320>
   2335c:	00800044 	movi	r2,1
   23360:	e0bfa20d 	sth	r2,-376(fp)
   23364:	00000306 	br	23374 <main+0x32c>
	      	else bin_level ++;
   23368:	e0bfa20b 	ldhu	r2,-376(fp)
   2336c:	10800044 	addi	r2,r2,1
   23370:	e0bfa20d 	sth	r2,-376(fp)
	      	printf("set bin level to %d\n",bin_level);
   23374:	e0bfa20b 	ldhu	r2,-376(fp)
   23378:	100b883a 	mov	r5,r2
   2337c:	010000f4 	movhi	r4,3
   23380:	211be704 	addi	r4,r4,28572
   23384:	0028b300 	call	28b30 <printf>
	      	MIPI_BIN_LEVEL(bin_level);
   23388:	e0bfa20b 	ldhu	r2,-376(fp)
   2338c:	10803fcc 	andi	r2,r2,255
   23390:	1009883a 	mov	r4,r2
   23394:	0024e880 	call	24e88 <MIPI_BIN_LEVEL>
	      	usleep(500000);
   23398:	01000234 	movhi	r4,8
   2339c:	21284804 	addi	r4,r4,-24288
   233a0:	00343040 	call	34304 <usleep>
	    }
       	//Read messages from the image processor and print them on the terminal
       	while (1){//(IORD(EEE_IMGPROC_0_BASE,EEE_IMGPROC_STATUS)>>8) & 0xff) {	//Find out if there are words to read
       		fflush(fp);
   233a4:	e13fbd17 	ldw	r4,-268(fp)
   233a8:	0026dd00 	call	26dd0 <fflush>
			// ---------- Analyse incoming string of characters from Control -------------

			int incomingChar2;
			int incomingChar3;

			int state1 = 0;
   233ac:	e03fc315 	stw	zero,-244(fp)
			int state2 = 0;
   233b0:	e03fc415 	stw	zero,-240(fp)
			//}
			//printf("Finished reading info\n");

			// ---------- End of analysing incoming chars from Control ---------

			if ((balls_detected == 4) && state1 == 1){
   233b4:	e0bfa317 	ldw	r2,-372(fp)
   233b8:	10800118 	cmpnei	r2,r2,4
   233bc:	10000d1e 	bne	r2,zero,233f4 <main+0x3ac>
   233c0:	e0bfc317 	ldw	r2,-244(fp)
   233c4:	10800058 	cmpnei	r2,r2,1
   233c8:	10000a1e 	bne	r2,zero,233f4 <main+0x3ac>
				// send signal which indicates that all 5 balls have been detected
				foundbit = 1;
   233cc:	00800044 	movi	r2,1
   233d0:	e0bfb815 	stw	r2,-288(fp)
				printf("All balls detected\n");
   233d4:	010000f4 	movhi	r4,3
   233d8:	211bed04 	addi	r4,r4,28596
   233dc:	0028c4c0 	call	28c4c <puts>
				fprintf(fp, "v%ig!\n", foundbit);
   233e0:	e1bfb817 	ldw	r6,-288(fp)
   233e4:	014000f4 	movhi	r5,3
   233e8:	295bf204 	addi	r5,r5,28616
   233ec:	e13fbd17 	ldw	r4,-268(fp)
   233f0:	00272d40 	call	272d4 <fprintf>
			}

			if (state1_array[0] == 0 && state1_array[1] == 1){
   233f4:	e0bffe17 	ldw	r2,-8(fp)
   233f8:	10000b1e 	bne	r2,zero,23428 <main+0x3e0>
   233fc:	e0bfff17 	ldw	r2,-4(fp)
   23400:	10800058 	cmpnei	r2,r2,1
   23404:	1000081e 	bne	r2,zero,23428 <main+0x3e0>
				printf("Finished a scan\n");
   23408:	010000f4 	movhi	r4,3
   2340c:	211bf404 	addi	r4,r4,28624
   23410:	0028c4c0 	call	28c4c <puts>

				//if (redBall_ptr->seen == TRUE)

				fprintf(fp, "v%ig!\n", foundbit);
   23414:	e1bfb817 	ldw	r6,-288(fp)
   23418:	014000f4 	movhi	r5,3
   2341c:	295bf204 	addi	r5,r5,28616
   23420:	e13fbd17 	ldw	r4,-268(fp)
   23424:	00272d40 	call	272d4 <fprintf>
			}

			// Check incoming chars for state changes
			if (state1_array[0] == 1 && state1_array[1] == 0 && state != 2){ // going from a 1 to a 0 indicates that we've gone to state 0/1
   23428:	e0bffe17 	ldw	r2,-8(fp)
   2342c:	10800058 	cmpnei	r2,r2,1
   23430:	10000c1e 	bne	r2,zero,23464 <main+0x41c>
   23434:	e0bfff17 	ldw	r2,-4(fp)
   23438:	10000a1e 	bne	r2,zero,23464 <main+0x41c>
   2343c:	e0bfb617 	ldw	r2,-296(fp)
   23440:	108000a0 	cmpeqi	r2,r2,2
   23444:	1000071e 	bne	r2,zero,23464 <main+0x41c>
				printf("Increment state\n");
   23448:	010000f4 	movhi	r4,3
   2344c:	211bf804 	addi	r4,r4,28640
   23450:	0028c4c0 	call	28c4c <puts>
				state++;
   23454:	e0bfb617 	ldw	r2,-296(fp)
   23458:	10800044 	addi	r2,r2,1
   2345c:	e0bfb615 	stw	r2,-296(fp)
   23460:	00000c06 	br	23494 <main+0x44c>
			}else if(state1_array[0] == 1 && state1_array[1] == 0 && state == 2){
   23464:	e0bffe17 	ldw	r2,-8(fp)
   23468:	10800058 	cmpnei	r2,r2,1
   2346c:	1000091e 	bne	r2,zero,23494 <main+0x44c>
   23470:	e0bfff17 	ldw	r2,-4(fp)
   23474:	1000071e 	bne	r2,zero,23494 <main+0x44c>
   23478:	e0bfb617 	ldw	r2,-296(fp)
   2347c:	10800098 	cmpnei	r2,r2,2
   23480:	1000041e 	bne	r2,zero,23494 <main+0x44c>
				printf("Reset state to 1st scan\n");
   23484:	010000f4 	movhi	r4,3
   23488:	211bfc04 	addi	r4,r4,28656
   2348c:	0028c4c0 	call	28c4c <puts>
				state = 0;
   23490:	e03fb615 	stw	zero,-296(fp)
			}

			//printf("Current state : %i\n", state);
    		if((IORD(EEE_IMGPROC_0_BASE,EEE_IMGPROC_STATUS)>>8) & 0xff){
   23494:	00800134 	movhi	r2,4
   23498:	10840804 	addi	r2,r2,4128
   2349c:	10800037 	ldwio	r2,0(r2)
   234a0:	1005d23a 	srai	r2,r2,8
   234a4:	10803fcc 	andi	r2,r2,255
   234a8:	10008126 	beq	r2,zero,236b0 <main+0x668>
    			//printf("Reading coordinate\n");
    			int word = IORD(EEE_IMGPROC_0_BASE,EEE_IMGPROC_MSG);
   234ac:	00800134 	movhi	r2,4
   234b0:	10840904 	addi	r2,r2,4132
   234b4:	10800037 	ldwio	r2,0(r2)
   234b8:	e0bfc515 	stw	r2,-236(fp)
			// Analyse incoming BB information and verilog and make the proper variable assignments
    	   	if (word == EEE_IMGPROC_MSG_START_R){ // If the incoming string == RBB
   234bc:	e0ffc517 	ldw	r3,-236(fp)
   234c0:	008014b4 	movhi	r2,82
   234c4:	10909084 	addi	r2,r2,16962
   234c8:	1880151e 	bne	r3,r2,23520 <main+0x4d8>
				r_topleft = IORD(EEE_IMGPROC_0_BASE,EEE_IMGPROC_MSG); // Grab the next word (top left coordinate)
   234cc:	00800134 	movhi	r2,4
   234d0:	10840904 	addi	r2,r2,4132
   234d4:	10800037 	ldwio	r2,0(r2)
   234d8:	e0bfc615 	stw	r2,-232(fp)
				r_bottomright = IORD(EEE_IMGPROC_0_BASE,EEE_IMGPROC_MSG); // Grab the next word (bottom right coordinate)
   234dc:	00800134 	movhi	r2,4
   234e0:	10840904 	addi	r2,r2,4132
   234e4:	10800037 	ldwio	r2,0(r2)
   234e8:	e0bfc715 	stw	r2,-228(fp)

				r_left_x = (r_topleft)>>16; // extracting the top 16 bits
   234ec:	e0bfc617 	ldw	r2,-232(fp)
   234f0:	1005d43a 	srai	r2,r2,16
   234f4:	e0bfa415 	stw	r2,-368(fp)
				r_right_x = (r_bottomright)>>16;
   234f8:	e0bfc717 	ldw	r2,-228(fp)
   234fc:	1005d43a 	srai	r2,r2,16
   23500:	e0bfa815 	stw	r2,-352(fp)
				r_left_y = (r_topleft & 0x0000ffff);
   23504:	e0bfc617 	ldw	r2,-232(fp)
   23508:	10bfffcc 	andi	r2,r2,65535
   2350c:	e0bfac15 	stw	r2,-336(fp)
				r_right_y = (r_bottomright & 0x0000ffff);
   23510:	e0bfc717 	ldw	r2,-228(fp)
   23514:	10bfffcc 	andi	r2,r2,65535
   23518:	e0bfb015 	stw	r2,-320(fp)
   2351c:	0000bd06 	br	23814 <main+0x7cc>
    	   	} else if (word == EEE_IMGPROC_MSG_START_G){ // If the incoming string == GBB
   23520:	e0ffc517 	ldw	r3,-236(fp)
   23524:	008011f4 	movhi	r2,71
   23528:	10909084 	addi	r2,r2,16962
   2352c:	1880151e 	bne	r3,r2,23584 <main+0x53c>
				g_topleft = IORD(EEE_IMGPROC_0_BASE,EEE_IMGPROC_MSG);
   23530:	00800134 	movhi	r2,4
   23534:	10840904 	addi	r2,r2,4132
   23538:	10800037 	ldwio	r2,0(r2)
   2353c:	e0bfc815 	stw	r2,-224(fp)
				g_bottomright = IORD(EEE_IMGPROC_0_BASE,EEE_IMGPROC_MSG);
   23540:	00800134 	movhi	r2,4
   23544:	10840904 	addi	r2,r2,4132
   23548:	10800037 	ldwio	r2,0(r2)
   2354c:	e0bfc915 	stw	r2,-220(fp)

				g_left_x = (g_topleft)>>16; // extracting the top 16 bits
   23550:	e0bfc817 	ldw	r2,-224(fp)
   23554:	1005d43a 	srai	r2,r2,16
   23558:	e0bfa515 	stw	r2,-364(fp)
				g_right_x = (g_bottomright)>>16;
   2355c:	e0bfc917 	ldw	r2,-220(fp)
   23560:	1005d43a 	srai	r2,r2,16
   23564:	e0bfa915 	stw	r2,-348(fp)
				g_left_y = (g_topleft & 0x0000ffff);
   23568:	e0bfc817 	ldw	r2,-224(fp)
   2356c:	10bfffcc 	andi	r2,r2,65535
   23570:	e0bfad15 	stw	r2,-332(fp)
				g_right_y = (g_bottomright & 0x0000ffff);
   23574:	e0bfc917 	ldw	r2,-220(fp)
   23578:	10bfffcc 	andi	r2,r2,65535
   2357c:	e0bfb115 	stw	r2,-316(fp)
   23580:	0000a406 	br	23814 <main+0x7cc>
    	   	} else if (word == EEE_IMGPROC_MSG_START_B){ // If the incoming string == BBB
   23584:	e0ffc517 	ldw	r3,-236(fp)
   23588:	008010b4 	movhi	r2,66
   2358c:	10909084 	addi	r2,r2,16962
   23590:	1880151e 	bne	r3,r2,235e8 <main+0x5a0>
				b_topleft = IORD(EEE_IMGPROC_0_BASE,EEE_IMGPROC_MSG);
   23594:	00800134 	movhi	r2,4
   23598:	10840904 	addi	r2,r2,4132
   2359c:	10800037 	ldwio	r2,0(r2)
   235a0:	e0bfca15 	stw	r2,-216(fp)
				b_bottomright = IORD(EEE_IMGPROC_0_BASE,EEE_IMGPROC_MSG);
   235a4:	00800134 	movhi	r2,4
   235a8:	10840904 	addi	r2,r2,4132
   235ac:	10800037 	ldwio	r2,0(r2)
   235b0:	e0bfcb15 	stw	r2,-212(fp)

				b_left_x = (b_topleft)>>16; // extracting the top 16 bits
   235b4:	e0bfca17 	ldw	r2,-216(fp)
   235b8:	1005d43a 	srai	r2,r2,16
   235bc:	e0bfa615 	stw	r2,-360(fp)
				b_right_x = (b_bottomright)>>16;
   235c0:	e0bfcb17 	ldw	r2,-212(fp)
   235c4:	1005d43a 	srai	r2,r2,16
   235c8:	e0bfaa15 	stw	r2,-344(fp)
				b_left_y = (b_topleft & 0x0000ffff);
   235cc:	e0bfca17 	ldw	r2,-216(fp)
   235d0:	10bfffcc 	andi	r2,r2,65535
   235d4:	e0bfae15 	stw	r2,-328(fp)
				b_right_y = (b_bottomright & 0x0000ffff);
   235d8:	e0bfcb17 	ldw	r2,-212(fp)
   235dc:	10bfffcc 	andi	r2,r2,65535
   235e0:	e0bfb215 	stw	r2,-312(fp)
   235e4:	00008b06 	br	23814 <main+0x7cc>
    	   	} else if (word == EEE_IMGPROC_MSG_START_V){ // If the incoming string == VBB
   235e8:	e0ffc517 	ldw	r3,-236(fp)
   235ec:	008015b4 	movhi	r2,86
   235f0:	10909084 	addi	r2,r2,16962
   235f4:	1880151e 	bne	r3,r2,2364c <main+0x604>
				v_topleft = IORD(EEE_IMGPROC_0_BASE,EEE_IMGPROC_MSG);
   235f8:	00800134 	movhi	r2,4
   235fc:	10840904 	addi	r2,r2,4132
   23600:	10800037 	ldwio	r2,0(r2)
   23604:	e0bfcc15 	stw	r2,-208(fp)
				v_bottomright = IORD(EEE_IMGPROC_0_BASE,EEE_IMGPROC_MSG);
   23608:	00800134 	movhi	r2,4
   2360c:	10840904 	addi	r2,r2,4132
   23610:	10800037 	ldwio	r2,0(r2)
   23614:	e0bfcd15 	stw	r2,-204(fp)

				v_left_x = (v_topleft)>>16; // extracting the top 16 bits
   23618:	e0bfcc17 	ldw	r2,-208(fp)
   2361c:	1005d43a 	srai	r2,r2,16
   23620:	e0bfce15 	stw	r2,-200(fp)
				v_right_x = (v_bottomright)>>16;
   23624:	e0bfcd17 	ldw	r2,-204(fp)
   23628:	1005d43a 	srai	r2,r2,16
   2362c:	e0bfcf15 	stw	r2,-196(fp)
				v_left_y = (v_topleft & 0x0000ffff);
   23630:	e0bfcc17 	ldw	r2,-208(fp)
   23634:	10bfffcc 	andi	r2,r2,65535
   23638:	e0bfd015 	stw	r2,-192(fp)
				v_right_y = (v_bottomright & 0x0000ffff);
   2363c:	e0bfcd17 	ldw	r2,-204(fp)
   23640:	10bfffcc 	andi	r2,r2,65535
   23644:	e0bfd115 	stw	r2,-188(fp)
   23648:	00007206 	br	23814 <main+0x7cc>
    	   	} else if (word == EEE_IMGPROC_MSG_START_Y){ // If the incoming string == YBB
   2364c:	e0ffc517 	ldw	r3,-236(fp)
   23650:	00801674 	movhi	r2,89
   23654:	10909084 	addi	r2,r2,16962
   23658:	18806e1e 	bne	r3,r2,23814 <main+0x7cc>
				y_topleft = IORD(EEE_IMGPROC_0_BASE,EEE_IMGPROC_MSG);
   2365c:	00800134 	movhi	r2,4
   23660:	10840904 	addi	r2,r2,4132
   23664:	10800037 	ldwio	r2,0(r2)
   23668:	e0bfd215 	stw	r2,-184(fp)
				y_bottomright = IORD(EEE_IMGPROC_0_BASE,EEE_IMGPROC_MSG);
   2366c:	00800134 	movhi	r2,4
   23670:	10840904 	addi	r2,r2,4132
   23674:	10800037 	ldwio	r2,0(r2)
   23678:	e0bfd315 	stw	r2,-180(fp)

				y_left_x = (y_topleft)>>16; // extracting the top 16 bits
   2367c:	e0bfd217 	ldw	r2,-184(fp)
   23680:	1005d43a 	srai	r2,r2,16
   23684:	e0bfa715 	stw	r2,-356(fp)
				y_right_x = (y_bottomright)>>16;
   23688:	e0bfd317 	ldw	r2,-180(fp)
   2368c:	1005d43a 	srai	r2,r2,16
   23690:	e0bfab15 	stw	r2,-340(fp)
				y_left_y = (y_topleft & 0x0000ffff);
   23694:	e0bfd217 	ldw	r2,-184(fp)
   23698:	10bfffcc 	andi	r2,r2,65535
   2369c:	e0bfaf15 	stw	r2,-324(fp)
				y_right_y = (y_bottomright & 0x0000ffff);
   236a0:	e0bfd317 	ldw	r2,-180(fp)
   236a4:	10bfffcc 	andi	r2,r2,65535
   236a8:	e0bfb315 	stw	r2,-308(fp)
   236ac:	00005906 	br	23814 <main+0x7cc>
    	   	}
			// Variables from incoming verilog info have been assigned, data is ready
    		}else{
    			//printf("Reading char\n");
    	   		incomingChar1 = getc(fp);
   236b0:	e13fbd17 	ldw	r4,-268(fp)
   236b4:	0027f000 	call	27f00 <getc>
   236b8:	e0bfd415 	stw	r2,-176(fp)
    	   		//printf("Received : %c\n", incomingChar1);
    			if(incomingChar1 == '0'){
   236bc:	e0bfd417 	ldw	r2,-176(fp)
   236c0:	10800c18 	cmpnei	r2,r2,48
   236c4:	1000051e 	bne	r2,zero,236dc <main+0x694>
    				printf("s0 - 1st scan\n");
   236c8:	010000f4 	movhi	r4,3
   236cc:	211c0204 	addi	r4,r4,28680
   236d0:	0028c4c0 	call	28c4c <puts>
    				state = 0;
   236d4:	e03fb615 	stw	zero,-296(fp)
   236d8:	00004e06 	br	23814 <main+0x7cc>
    			}else if (incomingChar1 == '1'){ // End of first 360 scan
   236dc:	e0bfd417 	ldw	r2,-176(fp)
   236e0:	10800c58 	cmpnei	r2,r2,49
   236e4:	1000061e 	bne	r2,zero,23700 <main+0x6b8>
    	   			printf("s1 - 1st scan done\n");
   236e8:	010000f4 	movhi	r4,3
   236ec:	211c0604 	addi	r4,r4,28696
   236f0:	0028c4c0 	call	28c4c <puts>
    	   			state = 1;
   236f4:	00800044 	movi	r2,1
   236f8:	e0bfb615 	stw	r2,-296(fp)
   236fc:	00004506 	br	23814 <main+0x7cc>
//    	   			state1_array[0] = state1_array[1];
//    	   			state1_array[1] = state1;
    	   		}else if (incomingChar1 == '2'){ // End of second 360 scan
   23700:	e0bfd417 	ldw	r2,-176(fp)
   23704:	10800ca0 	cmpeqi	r2,r2,50
   23708:	1000421e 	bne	r2,zero,23814 <main+0x7cc>
    	   			// we instantly jump from 2 to 3 so any processing in 2 occurs in 3
    	   		}else if (incomingChar1 == '3'){ // Starting 3rd scan - look for the closest ball
   2370c:	e0bfd417 	ldw	r2,-176(fp)
   23710:	10800cd8 	cmpnei	r2,r2,51
   23714:	1000061e 	bne	r2,zero,23730 <main+0x6e8>
    	   			//printf("Searching for closest ball\n");
    	   			//state = 2;
    	   			printf("s2/3 - end of 2nd scan, starting 3rd scan\n");
   23718:	010000f4 	movhi	r4,3
   2371c:	211c0b04 	addi	r4,r4,28716
   23720:	0028c4c0 	call	28c4c <puts>
    	   			second_scan_done = 1;
   23724:	00800044 	movi	r2,1
   23728:	e0bfb715 	stw	r2,-292(fp)
   2372c:	00003906 	br	23814 <main+0x7cc>
    	   		}else if(incomingChar1 == '4'){ // 4 indicates that we are now facing the ball
   23730:	e0bfd417 	ldw	r2,-176(fp)
   23734:	10800d18 	cmpnei	r2,r2,52
   23738:	1000041e 	bne	r2,zero,2374c <main+0x704>
    	   			printf("s4 - now facing the closest or first ball\n");
   2373c:	010000f4 	movhi	r4,3
   23740:	211c1604 	addi	r4,r4,28760
   23744:	0028c4c0 	call	28c4c <puts>
   23748:	00003206 	br	23814 <main+0x7cc>
    	   			//printf("Should stop at the closest ball\n");
    	   		}else if(incomingChar1 == '5'){
   2374c:	e0bfd417 	ldw	r2,-176(fp)
   23750:	10800d58 	cmpnei	r2,r2,53
   23754:	1000281e 	bne	r2,zero,237f8 <main+0x7b0>
    	   			printf("s5\n");
   23758:	010000f4 	movhi	r4,3
   2375c:	211c2104 	addi	r4,r4,28804
   23760:	0028c4c0 	call	28c4c <puts>
    	   			if (redBall_ptr->seen == FALSE){
   23764:	e0bfbe17 	ldw	r2,-264(fp)
   23768:	10800417 	ldw	r2,16(r2)
   2376c:	1000061e 	bne	r2,zero,23788 <main+0x740>
    	   				redBall_ptr->seen1 = FALSE;
   23770:	e0bfbe17 	ldw	r2,-264(fp)
   23774:	10000515 	stw	zero,20(r2)
    	   				redBall_ptr->seen2 = FALSE;
   23778:	e0bfbe17 	ldw	r2,-264(fp)
   2377c:	10000615 	stw	zero,24(r2)
    	   				redBall_ptr->seen3 = FALSE;
   23780:	e0bfbe17 	ldw	r2,-264(fp)
   23784:	10000715 	stw	zero,28(r2)
    	   			}
    	   			if (greenBall_ptr->seen == FALSE){
   23788:	e0bfbf17 	ldw	r2,-260(fp)
   2378c:	10800417 	ldw	r2,16(r2)
   23790:	1000061e 	bne	r2,zero,237ac <main+0x764>
    	   				greenBall_ptr->seen1 = FALSE;
   23794:	e0bfbf17 	ldw	r2,-260(fp)
   23798:	10000515 	stw	zero,20(r2)
    	   				greenBall_ptr->seen2 = FALSE;
   2379c:	e0bfbf17 	ldw	r2,-260(fp)
   237a0:	10000615 	stw	zero,24(r2)
    	   				greenBall_ptr->seen3 = FALSE;
   237a4:	e0bfbf17 	ldw	r2,-260(fp)
   237a8:	10000715 	stw	zero,28(r2)
    	   			}
    	   			if (blueBall_ptr->seen == FALSE){
   237ac:	e0bfc017 	ldw	r2,-256(fp)
   237b0:	10800417 	ldw	r2,16(r2)
   237b4:	1000061e 	bne	r2,zero,237d0 <main+0x788>
    	   				blueBall_ptr->seen1 = FALSE;
   237b8:	e0bfc017 	ldw	r2,-256(fp)
   237bc:	10000515 	stw	zero,20(r2)
    	   				blueBall_ptr->seen2 = FALSE;
   237c0:	e0bfc017 	ldw	r2,-256(fp)
   237c4:	10000615 	stw	zero,24(r2)
    	   				blueBall_ptr->seen3 = FALSE;
   237c8:	e0bfc017 	ldw	r2,-256(fp)
   237cc:	10000715 	stw	zero,28(r2)
    	   			}
    	   			if (yellowBall_ptr->seen == FALSE){
   237d0:	e0bfc117 	ldw	r2,-252(fp)
   237d4:	10800417 	ldw	r2,16(r2)
   237d8:	10000e1e 	bne	r2,zero,23814 <main+0x7cc>
    	   				yellowBall_ptr->seen1 = FALSE;
   237dc:	e0bfc117 	ldw	r2,-252(fp)
   237e0:	10000515 	stw	zero,20(r2)
    	   				yellowBall_ptr->seen2 = FALSE;
   237e4:	e0bfc117 	ldw	r2,-252(fp)
   237e8:	10000615 	stw	zero,24(r2)
    	   				yellowBall_ptr->seen3 = FALSE;
   237ec:	e0bfc117 	ldw	r2,-252(fp)
   237f0:	10000715 	stw	zero,28(r2)
   237f4:	00000706 	br	23814 <main+0x7cc>
    	   			}
    	   		}else if (incomingChar1 == '6'){ // 6 indicates that we've gotten to the ball
   237f8:	e0bfd417 	ldw	r2,-176(fp)
   237fc:	10800d98 	cmpnei	r2,r2,54
   23800:	1000041e 	bne	r2,zero,23814 <main+0x7cc>
    	   			printf("s6 - reached the ball, repeat the 1st scan");
   23804:	010000f4 	movhi	r4,3
   23808:	211c2204 	addi	r4,r4,28808
   2380c:	0028b300 	call	28b30 <printf>
    	   			state = 0;
   23810:	e03fb615 	stw	zero,-296(fp)
//    	   		printf("Not yet seen\n");
//    	   		//yellowBall_ptr->seen = TRUE;
//    	   	}

			// Check for state, perform operations based on state
			if(state == 0){ // 1st scan - accurate distances
   23814:	e0bfb617 	ldw	r2,-296(fp)
   23818:	10013f1e 	bne	r2,zero,23d18 <main+0xcd0>
				//printf("Entered state 0\n");
				if((redBall_ptr->seen == FALSE) && (redBall_ptr->seen1 == FALSE) && is_ball(r_left_x, r_right_x, r_left_y, r_right_y) && is_in_centre_range(r_left_x, r_right_x)){
   2381c:	e0bfbe17 	ldw	r2,-264(fp)
   23820:	10800417 	ldw	r2,16(r2)
   23824:	10004f1e 	bne	r2,zero,23964 <main+0x91c>
   23828:	e0bfbe17 	ldw	r2,-264(fp)
   2382c:	10800517 	ldw	r2,20(r2)
   23830:	10004c1e 	bne	r2,zero,23964 <main+0x91c>
   23834:	e1ffb017 	ldw	r7,-320(fp)
   23838:	e1bfac17 	ldw	r6,-336(fp)
   2383c:	e17fa817 	ldw	r5,-352(fp)
   23840:	e13fa417 	ldw	r4,-368(fp)
   23844:	00217280 	call	21728 <is_ball>
   23848:	10004626 	beq	r2,zero,23964 <main+0x91c>
   2384c:	e17fa817 	ldw	r5,-352(fp)
   23850:	e13fa417 	ldw	r4,-368(fp)
   23854:	00218900 	call	21890 <is_in_centre_range>
   23858:	10004226 	beq	r2,zero,23964 <main+0x91c>
					printf("Red ball detected\n");
   2385c:	010000f4 	movhi	r4,3
   23860:	211c2d04 	addi	r4,r4,28852
   23864:	0028c4c0 	call	28c4c <puts>
					fprintf(fp, "v%is!\n", foundbit); // tell the rover to stop
   23868:	e1bfb817 	ldw	r6,-288(fp)
   2386c:	014000f4 	movhi	r5,3
   23870:	295c3204 	addi	r5,r5,28872
   23874:	e13fbd17 	ldw	r4,-268(fp)
   23878:	00272d40 	call	272d4 <fprintf>
					printf("Sent s\n");
   2387c:	010000f4 	movhi	r4,3
   23880:	211c3404 	addi	r4,r4,28880
   23884:	0028c4c0 	call	28c4c <puts>

					distance = distance_calc(r_left_x, r_right_x, r_left_y, r_right_y);
   23888:	e1ffb017 	ldw	r7,-320(fp)
   2388c:	e1bfac17 	ldw	r6,-336(fp)
   23890:	e17fa817 	ldw	r5,-352(fp)
   23894:	e13fa417 	ldw	r4,-368(fp)
   23898:	002197c0 	call	2197c <distance_calc>
   2389c:	e0bfd515 	stw	r2,-172(fp)
					printf("Distance : %i\n", distance);
   238a0:	e17fd517 	ldw	r5,-172(fp)
   238a4:	010000f4 	movhi	r4,3
   238a8:	211b2604 	addi	r4,r4,27800
   238ac:	0028b300 	call	28b30 <printf>
					// Check what zone that distance corresponds to
					if (distance_check_z1(distance) == 1){
   238b0:	e13fd517 	ldw	r4,-172(fp)
   238b4:	00218f40 	call	218f4 <distance_check_z1>
   238b8:	10800058 	cmpnei	r2,r2,1
   238bc:	1000121e 	bne	r2,zero,23908 <main+0x8c0>
						printf("Distance in accurate distance range\n");
   238c0:	010000f4 	movhi	r4,3
   238c4:	211c3604 	addi	r4,r4,28888
   238c8:	0028c4c0 	call	28c4c <puts>
						fprintf(fp, "c/r/%d/!\n", distance);
   238cc:	e1bfd517 	ldw	r6,-172(fp)
   238d0:	014000f4 	movhi	r5,3
   238d4:	295c3f04 	addi	r5,r5,28924
   238d8:	e13fbd17 	ldw	r4,-268(fp)
   238dc:	00272d40 	call	272d4 <fprintf>
						redBall_ptr->distance = distance;
   238e0:	e0bfbe17 	ldw	r2,-264(fp)
   238e4:	e0ffd517 	ldw	r3,-172(fp)
   238e8:	10c00115 	stw	r3,4(r2)
						redBall_ptr->seen = TRUE;
   238ec:	e0bfbe17 	ldw	r2,-264(fp)
   238f0:	00c00044 	movi	r3,1
   238f4:	10c00415 	stw	r3,16(r2)
						balls_detected++;
   238f8:	e0bfa317 	ldw	r2,-372(fp)
   238fc:	10800044 	addi	r2,r2,1
   23900:	e0bfa315 	stw	r2,-372(fp)
   23904:	00000206 	br	23910 <main+0x8c8>

//						redBall_ptr->x_coord = int_x + distance*cos(int_theta);
//						redBall_ptr->y_coord = int_y + distance*sin(int_theta);
					}else{
						redBall_ptr->seen = FALSE;
   23908:	e0bfbe17 	ldw	r2,-264(fp)
   2390c:	10000415 	stw	zero,16(r2)
					}
					redBall_ptr->seen1 = TRUE;
   23910:	e0bfbe17 	ldw	r2,-264(fp)
   23914:	00c00044 	movi	r3,1
   23918:	10c00515 	stw	r3,20(r2)

					fprintf(fp, "v%ig!\n", foundbit);
   2391c:	e1bfb817 	ldw	r6,-288(fp)
   23920:	014000f4 	movhi	r5,3
   23924:	295bf204 	addi	r5,r5,28616
   23928:	e13fbd17 	ldw	r4,-268(fp)
   2392c:	00272d40 	call	272d4 <fprintf>
					printf("Sent g\n");
   23930:	010000f4 	movhi	r4,3
   23934:	211c4204 	addi	r4,r4,28936
   23938:	0028c4c0 	call	28c4c <puts>

					// Need to read the next few messages to restart the while loop
					IORD(EEE_IMGPROC_0_BASE,EEE_IMGPROC_MSG);
   2393c:	00800134 	movhi	r2,4
   23940:	10840904 	addi	r2,r2,4132
   23944:	10800037 	ldwio	r2,0(r2)
					IORD(EEE_IMGPROC_0_BASE,EEE_IMGPROC_MSG);
   23948:	00800134 	movhi	r2,4
   2394c:	10840904 	addi	r2,r2,4132
   23950:	10800037 	ldwio	r2,0(r2)
					IORD(EEE_IMGPROC_0_BASE,EEE_IMGPROC_MSG);
   23954:	00800134 	movhi	r2,4
   23958:	10840904 	addi	r2,r2,4132
   2395c:	10800037 	ldwio	r2,0(r2)
   23960:	00037306 	br	24730 <main+0x16e8>
				} else if ((greenBall_ptr->seen == FALSE) && (greenBall_ptr->seen1 == FALSE) && is_ball(g_left_x, g_right_x, g_left_y, g_right_y) && is_in_centre_range(g_left_x, g_right_x)){
   23964:	e0bfbf17 	ldw	r2,-260(fp)
   23968:	10800417 	ldw	r2,16(r2)
   2396c:	1000461e 	bne	r2,zero,23a88 <main+0xa40>
   23970:	e0bfbf17 	ldw	r2,-260(fp)
   23974:	10800517 	ldw	r2,20(r2)
   23978:	1000431e 	bne	r2,zero,23a88 <main+0xa40>
   2397c:	e1ffb117 	ldw	r7,-316(fp)
   23980:	e1bfad17 	ldw	r6,-332(fp)
   23984:	e17fa917 	ldw	r5,-348(fp)
   23988:	e13fa517 	ldw	r4,-364(fp)
   2398c:	00217280 	call	21728 <is_ball>
   23990:	10003d26 	beq	r2,zero,23a88 <main+0xa40>
   23994:	e17fa917 	ldw	r5,-348(fp)
   23998:	e13fa517 	ldw	r4,-364(fp)
   2399c:	00218900 	call	21890 <is_in_centre_range>
   239a0:	10003926 	beq	r2,zero,23a88 <main+0xa40>
					printf("Green ball detected\n");
   239a4:	010000f4 	movhi	r4,3
   239a8:	211c4404 	addi	r4,r4,28944
   239ac:	0028c4c0 	call	28c4c <puts>
					fprintf(fp, "v%is!\n", foundbit);
   239b0:	e1bfb817 	ldw	r6,-288(fp)
   239b4:	014000f4 	movhi	r5,3
   239b8:	295c3204 	addi	r5,r5,28872
   239bc:	e13fbd17 	ldw	r4,-268(fp)
   239c0:	00272d40 	call	272d4 <fprintf>
					printf("Sent s\n");
   239c4:	010000f4 	movhi	r4,3
   239c8:	211c3404 	addi	r4,r4,28880
   239cc:	0028c4c0 	call	28c4c <puts>
					distance = distance_calc(g_left_x, g_right_x, g_left_y, g_right_y);
   239d0:	e1ffb117 	ldw	r7,-316(fp)
   239d4:	e1bfad17 	ldw	r6,-332(fp)
   239d8:	e17fa917 	ldw	r5,-348(fp)
   239dc:	e13fa517 	ldw	r4,-364(fp)
   239e0:	002197c0 	call	2197c <distance_calc>
   239e4:	e0bfd515 	stw	r2,-172(fp)
					printf("Distance : %i\n", distance);
   239e8:	e17fd517 	ldw	r5,-172(fp)
   239ec:	010000f4 	movhi	r4,3
   239f0:	211b2604 	addi	r4,r4,27800
   239f4:	0028b300 	call	28b30 <printf>
					// Check what zone that distance corresponds to
					if (distance_check_z1(distance) == 1){
   239f8:	e13fd517 	ldw	r4,-172(fp)
   239fc:	00218f40 	call	218f4 <distance_check_z1>
   23a00:	10800058 	cmpnei	r2,r2,1
   23a04:	1000121e 	bne	r2,zero,23a50 <main+0xa08>
						printf("Distance in accurate distance range\n");
   23a08:	010000f4 	movhi	r4,3
   23a0c:	211c3604 	addi	r4,r4,28888
   23a10:	0028c4c0 	call	28c4c <puts>
						fprintf(fp, "c/g/%d/!\n", distance);
   23a14:	e1bfd517 	ldw	r6,-172(fp)
   23a18:	014000f4 	movhi	r5,3
   23a1c:	295c4904 	addi	r5,r5,28964
   23a20:	e13fbd17 	ldw	r4,-268(fp)
   23a24:	00272d40 	call	272d4 <fprintf>
						greenBall_ptr->distance = distance;
   23a28:	e0bfbf17 	ldw	r2,-260(fp)
   23a2c:	e0ffd517 	ldw	r3,-172(fp)
   23a30:	10c00115 	stw	r3,4(r2)
						greenBall_ptr->seen = TRUE;
   23a34:	e0bfbf17 	ldw	r2,-260(fp)
   23a38:	00c00044 	movi	r3,1
   23a3c:	10c00415 	stw	r3,16(r2)
						balls_detected++;
   23a40:	e0bfa317 	ldw	r2,-372(fp)
   23a44:	10800044 	addi	r2,r2,1
   23a48:	e0bfa315 	stw	r2,-372(fp)
   23a4c:	00000206 	br	23a58 <main+0xa10>
					}else{
						greenBall_ptr->seen = FALSE;
   23a50:	e0bfbf17 	ldw	r2,-260(fp)
   23a54:	10000415 	stw	zero,16(r2)
					}
					greenBall_ptr->seen1 = TRUE;
   23a58:	e0bfbf17 	ldw	r2,-260(fp)
   23a5c:	00c00044 	movi	r3,1
   23a60:	10c00515 	stw	r3,20(r2)
					fprintf(fp, "v%ig!\n", foundbit);
   23a64:	e1bfb817 	ldw	r6,-288(fp)
   23a68:	014000f4 	movhi	r5,3
   23a6c:	295bf204 	addi	r5,r5,28616
   23a70:	e13fbd17 	ldw	r4,-268(fp)
   23a74:	00272d40 	call	272d4 <fprintf>
					printf("Sent g\n");
   23a78:	010000f4 	movhi	r4,3
   23a7c:	211c4204 	addi	r4,r4,28936
   23a80:	0028c4c0 	call	28c4c <puts>
   23a84:	00032a06 	br	24730 <main+0x16e8>
				} else if ((blueBall_ptr->seen == FALSE) && (blueBall_ptr->seen1 == FALSE) && is_ball(b_left_x, b_right_x, b_left_y, b_right_y) && is_in_centre_range(b_left_x, b_right_x)){
   23a88:	e0bfc017 	ldw	r2,-256(fp)
   23a8c:	10800417 	ldw	r2,16(r2)
   23a90:	10004f1e 	bne	r2,zero,23bd0 <main+0xb88>
   23a94:	e0bfc017 	ldw	r2,-256(fp)
   23a98:	10800517 	ldw	r2,20(r2)
   23a9c:	10004c1e 	bne	r2,zero,23bd0 <main+0xb88>
   23aa0:	e1ffb217 	ldw	r7,-312(fp)
   23aa4:	e1bfae17 	ldw	r6,-328(fp)
   23aa8:	e17faa17 	ldw	r5,-344(fp)
   23aac:	e13fa617 	ldw	r4,-360(fp)
   23ab0:	00217280 	call	21728 <is_ball>
   23ab4:	10004626 	beq	r2,zero,23bd0 <main+0xb88>
   23ab8:	e17faa17 	ldw	r5,-344(fp)
   23abc:	e13fa617 	ldw	r4,-360(fp)
   23ac0:	00218900 	call	21890 <is_in_centre_range>
   23ac4:	10004226 	beq	r2,zero,23bd0 <main+0xb88>
					printf("Blue ball detected\n");
   23ac8:	010000f4 	movhi	r4,3
   23acc:	211c4c04 	addi	r4,r4,28976
   23ad0:	0028c4c0 	call	28c4c <puts>
					fprintf(fp, "v%is!\n", foundbit);
   23ad4:	e1bfb817 	ldw	r6,-288(fp)
   23ad8:	014000f4 	movhi	r5,3
   23adc:	295c3204 	addi	r5,r5,28872
   23ae0:	e13fbd17 	ldw	r4,-268(fp)
   23ae4:	00272d40 	call	272d4 <fprintf>
					printf("Sent s\n");
   23ae8:	010000f4 	movhi	r4,3
   23aec:	211c3404 	addi	r4,r4,28880
   23af0:	0028c4c0 	call	28c4c <puts>

					distance = distance_calc(b_left_x, b_right_x, b_left_y, b_right_y);
   23af4:	e1ffb217 	ldw	r7,-312(fp)
   23af8:	e1bfae17 	ldw	r6,-328(fp)
   23afc:	e17faa17 	ldw	r5,-344(fp)
   23b00:	e13fa617 	ldw	r4,-360(fp)
   23b04:	002197c0 	call	2197c <distance_calc>
   23b08:	e0bfd515 	stw	r2,-172(fp)
					printf("Distance : %i\n", distance);
   23b0c:	e17fd517 	ldw	r5,-172(fp)
   23b10:	010000f4 	movhi	r4,3
   23b14:	211b2604 	addi	r4,r4,27800
   23b18:	0028b300 	call	28b30 <printf>
					// Check what zone that distance corresponds to
					if (distance_check_z1(distance) == 1){
   23b1c:	e13fd517 	ldw	r4,-172(fp)
   23b20:	00218f40 	call	218f4 <distance_check_z1>
   23b24:	10800058 	cmpnei	r2,r2,1
   23b28:	1000121e 	bne	r2,zero,23b74 <main+0xb2c>
						printf("Distance in accurate distance range\n");
   23b2c:	010000f4 	movhi	r4,3
   23b30:	211c3604 	addi	r4,r4,28888
   23b34:	0028c4c0 	call	28c4c <puts>
						fprintf(fp, "c/b/%d/!\n", distance);
   23b38:	e1bfd517 	ldw	r6,-172(fp)
   23b3c:	014000f4 	movhi	r5,3
   23b40:	295c5104 	addi	r5,r5,28996
   23b44:	e13fbd17 	ldw	r4,-268(fp)
   23b48:	00272d40 	call	272d4 <fprintf>
						blueBall_ptr->distance = distance;
   23b4c:	e0bfc017 	ldw	r2,-256(fp)
   23b50:	e0ffd517 	ldw	r3,-172(fp)
   23b54:	10c00115 	stw	r3,4(r2)
						blueBall_ptr->seen = TRUE;
   23b58:	e0bfc017 	ldw	r2,-256(fp)
   23b5c:	00c00044 	movi	r3,1
   23b60:	10c00415 	stw	r3,16(r2)
						balls_detected++;
   23b64:	e0bfa317 	ldw	r2,-372(fp)
   23b68:	10800044 	addi	r2,r2,1
   23b6c:	e0bfa315 	stw	r2,-372(fp)
   23b70:	00000206 	br	23b7c <main+0xb34>
					}else{
						blueBall_ptr->seen = FALSE;
   23b74:	e0bfc017 	ldw	r2,-256(fp)
   23b78:	10000415 	stw	zero,16(r2)
					}
					blueBall_ptr->seen1 = TRUE;
   23b7c:	e0bfc017 	ldw	r2,-256(fp)
   23b80:	00c00044 	movi	r3,1
   23b84:	10c00515 	stw	r3,20(r2)
					fprintf(fp, "v%ig!\n", foundbit);
   23b88:	e1bfb817 	ldw	r6,-288(fp)
   23b8c:	014000f4 	movhi	r5,3
   23b90:	295bf204 	addi	r5,r5,28616
   23b94:	e13fbd17 	ldw	r4,-268(fp)
   23b98:	00272d40 	call	272d4 <fprintf>
					printf("Sent g\n");
   23b9c:	010000f4 	movhi	r4,3
   23ba0:	211c4204 	addi	r4,r4,28936
   23ba4:	0028c4c0 	call	28c4c <puts>
					IORD(EEE_IMGPROC_0_BASE,EEE_IMGPROC_MSG);
   23ba8:	00800134 	movhi	r2,4
   23bac:	10840904 	addi	r2,r2,4132
   23bb0:	10800037 	ldwio	r2,0(r2)
					IORD(EEE_IMGPROC_0_BASE,EEE_IMGPROC_MSG);
   23bb4:	00800134 	movhi	r2,4
   23bb8:	10840904 	addi	r2,r2,4132
   23bbc:	10800037 	ldwio	r2,0(r2)
					IORD(EEE_IMGPROC_0_BASE,EEE_IMGPROC_MSG);
   23bc0:	00800134 	movhi	r2,4
   23bc4:	10840904 	addi	r2,r2,4132
   23bc8:	10800037 	ldwio	r2,0(r2)
   23bcc:	0002d806 	br	24730 <main+0x16e8>
						// int theta;
					}else{
						violetBall_ptr->seen = FALSE;
					}
					//fprintf(fp, "v%ig\n", foundbit);
			}*/	}else if ((yellowBall_ptr->seen == FALSE) && (yellowBall_ptr->seen1 == FALSE) && is_ball(y_left_x, y_right_x, y_left_y, y_right_y) && is_in_centre_range(y_left_x, y_right_x)){
   23bd0:	e0bfc117 	ldw	r2,-252(fp)
   23bd4:	10800417 	ldw	r2,16(r2)
   23bd8:	103df21e 	bne	r2,zero,233a4 <_gp+0xfffe187c>
   23bdc:	e0bfc117 	ldw	r2,-252(fp)
   23be0:	10800517 	ldw	r2,20(r2)
   23be4:	103def1e 	bne	r2,zero,233a4 <_gp+0xfffe187c>
   23be8:	e1ffb317 	ldw	r7,-308(fp)
   23bec:	e1bfaf17 	ldw	r6,-324(fp)
   23bf0:	e17fab17 	ldw	r5,-340(fp)
   23bf4:	e13fa717 	ldw	r4,-356(fp)
   23bf8:	00217280 	call	21728 <is_ball>
   23bfc:	103de926 	beq	r2,zero,233a4 <_gp+0xfffe187c>
   23c00:	e17fab17 	ldw	r5,-340(fp)
   23c04:	e13fa717 	ldw	r4,-356(fp)
   23c08:	00218900 	call	21890 <is_in_centre_range>
   23c0c:	103de526 	beq	r2,zero,233a4 <_gp+0xfffe187c>
					printf("Yellow ball detected\n");
   23c10:	010000f4 	movhi	r4,3
   23c14:	211c5404 	addi	r4,r4,29008
   23c18:	0028c4c0 	call	28c4c <puts>
					fprintf(fp, "v%is!\n", foundbit);
   23c1c:	e1bfb817 	ldw	r6,-288(fp)
   23c20:	014000f4 	movhi	r5,3
   23c24:	295c3204 	addi	r5,r5,28872
   23c28:	e13fbd17 	ldw	r4,-268(fp)
   23c2c:	00272d40 	call	272d4 <fprintf>
					printf("Sent s\n");
   23c30:	010000f4 	movhi	r4,3
   23c34:	211c3404 	addi	r4,r4,28880
   23c38:	0028c4c0 	call	28c4c <puts>

					distance = distance_calc(y_left_x, y_right_x, y_left_y, y_right_y);
   23c3c:	e1ffb317 	ldw	r7,-308(fp)
   23c40:	e1bfaf17 	ldw	r6,-324(fp)
   23c44:	e17fab17 	ldw	r5,-340(fp)
   23c48:	e13fa717 	ldw	r4,-356(fp)
   23c4c:	002197c0 	call	2197c <distance_calc>
   23c50:	e0bfd515 	stw	r2,-172(fp)
					printf("Distance : %i\n", distance);
   23c54:	e17fd517 	ldw	r5,-172(fp)
   23c58:	010000f4 	movhi	r4,3
   23c5c:	211b2604 	addi	r4,r4,27800
   23c60:	0028b300 	call	28b30 <printf>

					// Check what zone that distance corresponds to
					if (distance_check_z1(distance) == 1){
   23c64:	e13fd517 	ldw	r4,-172(fp)
   23c68:	00218f40 	call	218f4 <distance_check_z1>
   23c6c:	10800058 	cmpnei	r2,r2,1
   23c70:	1000121e 	bne	r2,zero,23cbc <main+0xc74>
						printf("Distance in accurate distance range\n");
   23c74:	010000f4 	movhi	r4,3
   23c78:	211c3604 	addi	r4,r4,28888
   23c7c:	0028c4c0 	call	28c4c <puts>
						fprintf(fp, "c/y/%d/!\n", distance);
   23c80:	e1bfd517 	ldw	r6,-172(fp)
   23c84:	014000f4 	movhi	r5,3
   23c88:	295c5a04 	addi	r5,r5,29032
   23c8c:	e13fbd17 	ldw	r4,-268(fp)
   23c90:	00272d40 	call	272d4 <fprintf>
						yellowBall_ptr->distance = distance;
   23c94:	e0bfc117 	ldw	r2,-252(fp)
   23c98:	e0ffd517 	ldw	r3,-172(fp)
   23c9c:	10c00115 	stw	r3,4(r2)
						yellowBall_ptr->seen = TRUE;
   23ca0:	e0bfc117 	ldw	r2,-252(fp)
   23ca4:	00c00044 	movi	r3,1
   23ca8:	10c00415 	stw	r3,16(r2)
						balls_detected++;
   23cac:	e0bfa317 	ldw	r2,-372(fp)
   23cb0:	10800044 	addi	r2,r2,1
   23cb4:	e0bfa315 	stw	r2,-372(fp)
   23cb8:	00000206 	br	23cc4 <main+0xc7c>
					}else{
						yellowBall_ptr->seen = FALSE;
   23cbc:	e0bfc117 	ldw	r2,-252(fp)
   23cc0:	10000415 	stw	zero,16(r2)
					}
					yellowBall_ptr->seen1 = TRUE;
   23cc4:	e0bfc117 	ldw	r2,-252(fp)
   23cc8:	00c00044 	movi	r3,1
   23ccc:	10c00515 	stw	r3,20(r2)

					fprintf(fp, "v%ig!\n", foundbit);
   23cd0:	e1bfb817 	ldw	r6,-288(fp)
   23cd4:	014000f4 	movhi	r5,3
   23cd8:	295bf204 	addi	r5,r5,28616
   23cdc:	e13fbd17 	ldw	r4,-268(fp)
   23ce0:	00272d40 	call	272d4 <fprintf>
					printf("Sent g\n");
   23ce4:	010000f4 	movhi	r4,3
   23ce8:	211c4204 	addi	r4,r4,28936
   23cec:	0028c4c0 	call	28c4c <puts>

					IORD(EEE_IMGPROC_0_BASE,EEE_IMGPROC_MSG);
   23cf0:	00800134 	movhi	r2,4
   23cf4:	10840904 	addi	r2,r2,4132
   23cf8:	10800037 	ldwio	r2,0(r2)
					IORD(EEE_IMGPROC_0_BASE,EEE_IMGPROC_MSG);
   23cfc:	00800134 	movhi	r2,4
   23d00:	10840904 	addi	r2,r2,4132
   23d04:	10800037 	ldwio	r2,0(r2)
					IORD(EEE_IMGPROC_0_BASE,EEE_IMGPROC_MSG);
   23d08:	00800134 	movhi	r2,4
   23d0c:	10840904 	addi	r2,r2,4132
   23d10:	10800037 	ldwio	r2,0(r2)
   23d14:	003da306 	br	233a4 <_gp+0xfffe187c>
				}
			}else if(state == 1){ // 2nd scan/vague distance
   23d18:	e0bfb617 	ldw	r2,-296(fp)
   23d1c:	10800058 	cmpnei	r2,r2,1
   23d20:	1001e71e 	bne	r2,zero,244c0 <main+0x1478>
				//printf("Entered 2nd scan\n");
				// If we've finished the full 360
				if(second_scan_done == 1){ //|| s2_balls_detected == 3){//state1 == 1){ // fill with char that we expect once the full 360 for stage 2 is done
   23d24:	e0bfb717 	ldw	r2,-292(fp)
   23d28:	10800058 	cmpnei	r2,r2,1
   23d2c:	1000c81e 	bne	r2,zero,24050 <main+0x1008>
					//printf("balls detected in s2 : %i\n", s2_balls_detected);
					if (s2_balls_detected == 0){ // no vague distances
   23d30:	e0bfb417 	ldw	r2,-304(fp)
   23d34:	1000041e 	bne	r2,zero,23d48 <main+0xd00>
						state = 2; // advance to stage 2 - first ball we see
   23d38:	00800084 	movi	r2,2
   23d3c:	e0bfb615 	stw	r2,-296(fp)
						second_scan_done = 0;
   23d40:	e03fb715 	stw	zero,-292(fp)
   23d44:	0000c206 	br	24050 <main+0x1008>
					}else{ // go to the closest ball
						printf("Searching for closest ball\n");
   23d48:	010000f4 	movhi	r4,3
   23d4c:	211c5d04 	addi	r4,r4,29044
   23d50:	0028c4c0 	call	28c4c <puts>
						//s2_balls_detected = 0; // reset counter for future 2nd scans

						if (closestBall->colour == 'R'){
   23d54:	e0bfb517 	ldw	r2,-300(fp)
   23d58:	10800003 	ldbu	r2,0(r2)
   23d5c:	10803fcc 	andi	r2,r2,255
   23d60:	1080201c 	xori	r2,r2,128
   23d64:	10bfe004 	addi	r2,r2,-128
   23d68:	10801498 	cmpnei	r2,r2,82
   23d6c:	1000291e 	bne	r2,zero,23e14 <main+0xdcc>
							printf("Closest ball is red\n");
   23d70:	010000f4 	movhi	r4,3
   23d74:	211c6404 	addi	r4,r4,29072
   23d78:	0028c4c0 	call	28c4c <puts>
							if ((redBall_ptr->seen == FALSE) && is_ball(r_left_x, r_right_x, r_left_y, r_right_y) && is_in_centre_range(r_left_x, r_right_x)){
   23d7c:	e0bfbe17 	ldw	r2,-264(fp)
   23d80:	10800417 	ldw	r2,16(r2)
   23d84:	1000b21e 	bne	r2,zero,24050 <main+0x1008>
   23d88:	e1ffb017 	ldw	r7,-320(fp)
   23d8c:	e1bfac17 	ldw	r6,-336(fp)
   23d90:	e17fa817 	ldw	r5,-352(fp)
   23d94:	e13fa417 	ldw	r4,-368(fp)
   23d98:	00217280 	call	21728 <is_ball>
   23d9c:	1000ac26 	beq	r2,zero,24050 <main+0x1008>
   23da0:	e17fa817 	ldw	r5,-352(fp)
   23da4:	e13fa417 	ldw	r4,-368(fp)
   23da8:	00218900 	call	21890 <is_in_centre_range>
   23dac:	1000a826 	beq	r2,zero,24050 <main+0x1008>
								fprintf(fp, "v%is!\n", foundbit);
   23db0:	e1bfb817 	ldw	r6,-288(fp)
   23db4:	014000f4 	movhi	r5,3
   23db8:	295c3204 	addi	r5,r5,28872
   23dbc:	e13fbd17 	ldw	r4,-268(fp)
   23dc0:	00272d40 	call	272d4 <fprintf>
								printf("Sent s\n");
   23dc4:	010000f4 	movhi	r4,3
   23dc8:	211c3404 	addi	r4,r4,28880
   23dcc:	0028c4c0 	call	28c4c <puts>
								// Rover then starts to go towards the ball; set off function that corrects the angle
								if (go_towards(closestBall, fp)){ // returns true if we've reached the ball and measured the distance
   23dd0:	e17fbd17 	ldw	r5,-268(fp)
   23dd4:	e13fb517 	ldw	r4,-300(fp)
   23dd8:	0021a580 	call	21a58 <go_towards>
   23ddc:	10009c26 	beq	r2,zero,24050 <main+0x1008>
									balls_detected++;
   23de0:	e0bfa317 	ldw	r2,-372(fp)
   23de4:	10800044 	addi	r2,r2,1
   23de8:	e0bfa315 	stw	r2,-372(fp)
									state = 0;
   23dec:	e03fb615 	stw	zero,-296(fp)

									// resetting variables
									s2_balls_detected = 0;
   23df0:	e03fb415 	stw	zero,-304(fp)
									closestBall = NULL;
   23df4:	e03fb515 	stw	zero,-300(fp)
									printf("Reset the closest ball\n");
   23df8:	010000f4 	movhi	r4,3
   23dfc:	211c6904 	addi	r4,r4,29092
   23e00:	0028c4c0 	call	28c4c <puts>
									second_scan_done = 0;
   23e04:	e03fb715 	stw	zero,-292(fp)
									fflush(fp);
   23e08:	e13fbd17 	ldw	r4,-268(fp)
   23e0c:	0026dd00 	call	26dd0 <fflush>
   23e10:	00008f06 	br	24050 <main+0x1008>
								}
							}
						}else if(closestBall->colour == 'G'){
   23e14:	e0bfb517 	ldw	r2,-300(fp)
   23e18:	10800003 	ldbu	r2,0(r2)
   23e1c:	10803fcc 	andi	r2,r2,255
   23e20:	1080201c 	xori	r2,r2,128
   23e24:	10bfe004 	addi	r2,r2,-128
   23e28:	108011d8 	cmpnei	r2,r2,71
   23e2c:	1000291e 	bne	r2,zero,23ed4 <main+0xe8c>
							printf("Closest ball is green\n");
   23e30:	010000f4 	movhi	r4,3
   23e34:	211c6f04 	addi	r4,r4,29116
   23e38:	0028c4c0 	call	28c4c <puts>
							if ((greenBall_ptr->seen == FALSE) && is_ball(g_left_x, g_right_x, g_left_y, g_right_y) && is_in_centre_range(g_left_x, g_right_x)){
   23e3c:	e0bfbf17 	ldw	r2,-260(fp)
   23e40:	10800417 	ldw	r2,16(r2)
   23e44:	1000821e 	bne	r2,zero,24050 <main+0x1008>
   23e48:	e1ffb117 	ldw	r7,-316(fp)
   23e4c:	e1bfad17 	ldw	r6,-332(fp)
   23e50:	e17fa917 	ldw	r5,-348(fp)
   23e54:	e13fa517 	ldw	r4,-364(fp)
   23e58:	00217280 	call	21728 <is_ball>
   23e5c:	10007c26 	beq	r2,zero,24050 <main+0x1008>
   23e60:	e17fa917 	ldw	r5,-348(fp)
   23e64:	e13fa517 	ldw	r4,-364(fp)
   23e68:	00218900 	call	21890 <is_in_centre_range>
   23e6c:	10007826 	beq	r2,zero,24050 <main+0x1008>
								fprintf(fp, "v%is!\n", foundbit);
   23e70:	e1bfb817 	ldw	r6,-288(fp)
   23e74:	014000f4 	movhi	r5,3
   23e78:	295c3204 	addi	r5,r5,28872
   23e7c:	e13fbd17 	ldw	r4,-268(fp)
   23e80:	00272d40 	call	272d4 <fprintf>
								printf("Sent s\n");
   23e84:	010000f4 	movhi	r4,3
   23e88:	211c3404 	addi	r4,r4,28880
   23e8c:	0028c4c0 	call	28c4c <puts>
								if(go_towards(closestBall, fp)){
   23e90:	e17fbd17 	ldw	r5,-268(fp)
   23e94:	e13fb517 	ldw	r4,-300(fp)
   23e98:	0021a580 	call	21a58 <go_towards>
   23e9c:	10006c26 	beq	r2,zero,24050 <main+0x1008>
									balls_detected++;
   23ea0:	e0bfa317 	ldw	r2,-372(fp)
   23ea4:	10800044 	addi	r2,r2,1
   23ea8:	e0bfa315 	stw	r2,-372(fp)
									state = 0;
   23eac:	e03fb615 	stw	zero,-296(fp)

									// resetting variables
									s2_balls_detected = 0;
   23eb0:	e03fb415 	stw	zero,-304(fp)
									closestBall = NULL;
   23eb4:	e03fb515 	stw	zero,-300(fp)
									printf("Reset the closest ball\n");
   23eb8:	010000f4 	movhi	r4,3
   23ebc:	211c6904 	addi	r4,r4,29092
   23ec0:	0028c4c0 	call	28c4c <puts>
									second_scan_done = 0;
   23ec4:	e03fb715 	stw	zero,-292(fp)
									fflush(fp);
   23ec8:	e13fbd17 	ldw	r4,-268(fp)
   23ecc:	0026dd00 	call	26dd0 <fflush>
   23ed0:	00005f06 	br	24050 <main+0x1008>
								}
							}
						}else if(closestBall->colour == 'B'){
   23ed4:	e0bfb517 	ldw	r2,-300(fp)
   23ed8:	10800003 	ldbu	r2,0(r2)
   23edc:	10803fcc 	andi	r2,r2,255
   23ee0:	1080201c 	xori	r2,r2,128
   23ee4:	10bfe004 	addi	r2,r2,-128
   23ee8:	10801098 	cmpnei	r2,r2,66
   23eec:	1000291e 	bne	r2,zero,23f94 <main+0xf4c>
							printf("Closest ball is blue\n");
   23ef0:	010000f4 	movhi	r4,3
   23ef4:	211c7504 	addi	r4,r4,29140
   23ef8:	0028c4c0 	call	28c4c <puts>
							if ((blueBall_ptr->seen == FALSE) && is_ball(b_left_x, b_right_x, b_left_y, b_right_y) && is_in_centre_range(b_left_x, b_right_x)){
   23efc:	e0bfc017 	ldw	r2,-256(fp)
   23f00:	10800417 	ldw	r2,16(r2)
   23f04:	1000521e 	bne	r2,zero,24050 <main+0x1008>
   23f08:	e1ffb217 	ldw	r7,-312(fp)
   23f0c:	e1bfae17 	ldw	r6,-328(fp)
   23f10:	e17faa17 	ldw	r5,-344(fp)
   23f14:	e13fa617 	ldw	r4,-360(fp)
   23f18:	00217280 	call	21728 <is_ball>
   23f1c:	10004c26 	beq	r2,zero,24050 <main+0x1008>
   23f20:	e17faa17 	ldw	r5,-344(fp)
   23f24:	e13fa617 	ldw	r4,-360(fp)
   23f28:	00218900 	call	21890 <is_in_centre_range>
   23f2c:	10004826 	beq	r2,zero,24050 <main+0x1008>
								fprintf(fp, "v%is!\n", foundbit);
   23f30:	e1bfb817 	ldw	r6,-288(fp)
   23f34:	014000f4 	movhi	r5,3
   23f38:	295c3204 	addi	r5,r5,28872
   23f3c:	e13fbd17 	ldw	r4,-268(fp)
   23f40:	00272d40 	call	272d4 <fprintf>
								printf("Sent s\n");
   23f44:	010000f4 	movhi	r4,3
   23f48:	211c3404 	addi	r4,r4,28880
   23f4c:	0028c4c0 	call	28c4c <puts>
								if(go_towards(closestBall, fp)){
   23f50:	e17fbd17 	ldw	r5,-268(fp)
   23f54:	e13fb517 	ldw	r4,-300(fp)
   23f58:	0021a580 	call	21a58 <go_towards>
   23f5c:	10003c26 	beq	r2,zero,24050 <main+0x1008>
									balls_detected++;
   23f60:	e0bfa317 	ldw	r2,-372(fp)
   23f64:	10800044 	addi	r2,r2,1
   23f68:	e0bfa315 	stw	r2,-372(fp)
									state = 0;
   23f6c:	e03fb615 	stw	zero,-296(fp)

									// resetting variables
									s2_balls_detected = 0;
   23f70:	e03fb415 	stw	zero,-304(fp)
									closestBall = NULL;
   23f74:	e03fb515 	stw	zero,-300(fp)
									printf("Reset the closest ball\n");
   23f78:	010000f4 	movhi	r4,3
   23f7c:	211c6904 	addi	r4,r4,29092
   23f80:	0028c4c0 	call	28c4c <puts>
									second_scan_done = 0;
   23f84:	e03fb715 	stw	zero,-292(fp)
									fflush(fp);
   23f88:	e13fbd17 	ldw	r4,-268(fp)
   23f8c:	0026dd00 	call	26dd0 <fflush>
   23f90:	00002f06 	br	24050 <main+0x1008>
								if (go_towards(closestBall, fp)){
									balls_detected++;
									state = 0;
								}
							}
						}*/else if(closestBall->colour == 'Y'){
   23f94:	e0bfb517 	ldw	r2,-300(fp)
   23f98:	10800003 	ldbu	r2,0(r2)
   23f9c:	10803fcc 	andi	r2,r2,255
   23fa0:	1080201c 	xori	r2,r2,128
   23fa4:	10bfe004 	addi	r2,r2,-128
   23fa8:	10801658 	cmpnei	r2,r2,89
   23fac:	1000281e 	bne	r2,zero,24050 <main+0x1008>
							printf("Closest ball is yellow\n");
   23fb0:	010000f4 	movhi	r4,3
   23fb4:	211c7b04 	addi	r4,r4,29164
   23fb8:	0028c4c0 	call	28c4c <puts>
							if ((yellowBall_ptr->seen == FALSE) && is_ball(y_left_x, y_right_x, y_left_y, y_right_y) && is_in_centre_range(y_left_x, y_right_x)){
   23fbc:	e0bfc117 	ldw	r2,-252(fp)
   23fc0:	10800417 	ldw	r2,16(r2)
   23fc4:	1000221e 	bne	r2,zero,24050 <main+0x1008>
   23fc8:	e1ffb317 	ldw	r7,-308(fp)
   23fcc:	e1bfaf17 	ldw	r6,-324(fp)
   23fd0:	e17fab17 	ldw	r5,-340(fp)
   23fd4:	e13fa717 	ldw	r4,-356(fp)
   23fd8:	00217280 	call	21728 <is_ball>
   23fdc:	10001c26 	beq	r2,zero,24050 <main+0x1008>
   23fe0:	e17fab17 	ldw	r5,-340(fp)
   23fe4:	e13fa717 	ldw	r4,-356(fp)
   23fe8:	00218900 	call	21890 <is_in_centre_range>
   23fec:	10001826 	beq	r2,zero,24050 <main+0x1008>
								fprintf(fp, "v%is!\n", foundbit);
   23ff0:	e1bfb817 	ldw	r6,-288(fp)
   23ff4:	014000f4 	movhi	r5,3
   23ff8:	295c3204 	addi	r5,r5,28872
   23ffc:	e13fbd17 	ldw	r4,-268(fp)
   24000:	00272d40 	call	272d4 <fprintf>
								printf("Sent s\n");
   24004:	010000f4 	movhi	r4,3
   24008:	211c3404 	addi	r4,r4,28880
   2400c:	0028c4c0 	call	28c4c <puts>
								if(go_towards(closestBall, fp)){
   24010:	e17fbd17 	ldw	r5,-268(fp)
   24014:	e13fb517 	ldw	r4,-300(fp)
   24018:	0021a580 	call	21a58 <go_towards>
   2401c:	10000c26 	beq	r2,zero,24050 <main+0x1008>
									balls_detected++;
   24020:	e0bfa317 	ldw	r2,-372(fp)
   24024:	10800044 	addi	r2,r2,1
   24028:	e0bfa315 	stw	r2,-372(fp)
									state = 0;
   2402c:	e03fb615 	stw	zero,-296(fp)

									// resetting variables
									s2_balls_detected = 0;
   24030:	e03fb415 	stw	zero,-304(fp)
									closestBall = NULL;
   24034:	e03fb515 	stw	zero,-300(fp)
									printf("Reset the closest ball\n");
   24038:	010000f4 	movhi	r4,3
   2403c:	211c6904 	addi	r4,r4,29092
   24040:	0028c4c0 	call	28c4c <puts>
									second_scan_done = 0;
   24044:	e03fb715 	stw	zero,-292(fp)
									fflush(fp);
   24048:	e13fbd17 	ldw	r4,-268(fp)
   2404c:	0026dd00 	call	26dd0 <fflush>
						}
					}
				}

				// While doing the full 360
				if((redBall_ptr->seen == FALSE) && (redBall_ptr->seen2 == FALSE) && is_ball(r_left_x, r_right_x, r_left_y, r_right_y) && is_in_centre_range(r_left_x, r_right_x)){
   24050:	e0bfbe17 	ldw	r2,-264(fp)
   24054:	10800417 	ldw	r2,16(r2)
   24058:	1000441e 	bne	r2,zero,2416c <main+0x1124>
   2405c:	e0bfbe17 	ldw	r2,-264(fp)
   24060:	10800617 	ldw	r2,24(r2)
   24064:	1000411e 	bne	r2,zero,2416c <main+0x1124>
   24068:	e1ffb017 	ldw	r7,-320(fp)
   2406c:	e1bfac17 	ldw	r6,-336(fp)
   24070:	e17fa817 	ldw	r5,-352(fp)
   24074:	e13fa417 	ldw	r4,-368(fp)
   24078:	00217280 	call	21728 <is_ball>
   2407c:	10003b26 	beq	r2,zero,2416c <main+0x1124>
   24080:	e17fa817 	ldw	r5,-352(fp)
   24084:	e13fa417 	ldw	r4,-368(fp)
   24088:	00218900 	call	21890 <is_in_centre_range>
   2408c:	10003726 	beq	r2,zero,2416c <main+0x1124>
					printf("2nd scan : Red ball detected\n");
   24090:	010000f4 	movhi	r4,3
   24094:	211c8104 	addi	r4,r4,29188
   24098:	0028c4c0 	call	28c4c <puts>
					fprintf(fp, "v%is!\n", foundbit);
   2409c:	e1bfb817 	ldw	r6,-288(fp)
   240a0:	014000f4 	movhi	r5,3
   240a4:	295c3204 	addi	r5,r5,28872
